

Microchip MPLAB XC8 Assembler V2.31 build 20201012212115 
                                                                                               Sat Feb 27 21:50:04 2021

Microchip MPLAB XC8 C Compiler v2.31 (Free license) build 20201012212115 Og1 
     1                           	processor	18F67K40
     2                           	fnconf	rparam,??,?,0
     3                           	pagewidth 120
     4                           	opt	flic
     5                           	psect	idataCOMRAM,global,class=CODE,delta=1,noexec
     6                           	psect	smallconst,global,reloc=2,class=SMALLCONST,delta=1,noexec
     7                           	psect	cinit,global,reloc=2,class=CODE,delta=1
     8                           	psect	bssCOMRAM,global,class=COMRAM,space=1,delta=1,lowdata,noexec
     9                           	psect	dataCOMRAM,global,class=COMRAM,space=1,delta=1,lowdata,noexec
    10                           	psect	bssBANK0,global,class=BANK0,space=1,delta=1,lowdata,noexec
    11                           	psect	cstackCOMRAM,global,class=COMRAM,space=1,delta=1,lowdata,noexec
    12                           	psect	text0,global,reloc=2,class=CODE,delta=1
    13                           	psect	text1,global,reloc=2,class=CODE,delta=1
    14                           	psect	text2,global,reloc=2,class=CODE,delta=1
    15                           	psect	text3,global,reloc=2,class=CODE,delta=1
    16                           	psect	text4,global,reloc=2,class=CODE,delta=1
    17                           	psect	text5,global,reloc=2,class=CODE,delta=1
    18                           	psect	text6,global,reloc=2,class=CODE,delta=1
    19                           	psect	text7,global,reloc=2,class=CODE,delta=1
    20                           	psect	text8,global,reloc=2,class=CODE,delta=1
    21                           	psect	text9,global,reloc=2,class=CODE,delta=1
    22                           	psect	text10,global,reloc=2,class=CODE,delta=1
    23                           	psect	text11,global,reloc=2,class=CODE,delta=1
    24                           	psect	text12,global,reloc=2,class=CODE,delta=1
    25                           	psect	intsave_regs,global,class=BIGRAM,space=1,delta=1,noexec
    26                           	psect	rparam,global,class=COMRAM,space=1,delta=1,noexec
    27                           	psect	idloc,global,abs,ovrld,class=IDLOC,space=5,delta=1,noexec
    28                           	psect	config,global,abs,ovrld,class=CONFIG,space=4,delta=1,noexec
    29  0000                     
    30                           ; Version 2.20
    31                           ; Generated 05/05/2020 GMT
    32                           ; 
    33                           ; Copyright © 2020, Microchip Technology Inc. and its subsidiaries ("Microchip")
    34                           ; All rights reserved.
    35                           ; 
    36                           ; This software is developed by Microchip Technology Inc. and its subsidiaries ("Microch
      +                          ip").
    37                           ; 
    38                           ; Redistribution and use in source and binary forms, with or without modification, are
    39                           ; permitted provided that the following conditions are met:
    40                           ; 
    41                           ;     1. Redistributions of source code must retain the above copyright notice, this lis
      +                          t of
    42                           ;        conditions and the following disclaimer.
    43                           ; 
    44                           ;     2. Redistributions in binary form must reproduce the above copyright notice, this 
      +                          list
    45                           ;        of conditions and the following disclaimer in the documentation and/or other
    46                           ;        materials provided with the distribution.
    47                           ; 
    48                           ;     3. Microchip's name may not be used to endorse or promote products derived from th
      +                          is
    49                           ;        software without specific prior written permission.
    50                           ; 
    51                           ; THIS SOFTWARE IS PROVIDED BY MICROCHIP "AS IS" AND ANY EXPRESS OR IMPLIED WARRANTIES,
    52                           ; INCLUDING, BUT NOT LIMITED TO, THE IMPLIED WARRANTIES OF MERCHANTABILITY AND FITNESS F
      +                          OR
    53                           ; PURPOSE ARE DISCLAIMED.  IN NO EVENT SHALL MICROCHIP BE LIABLE FOR ANY DIRECT, INDIREC
      +                          T,
    54                           ; INCIDENTAL, SPECIAL, EXEMPLARY, OR CONSEQUENTIAL DAMAGES (INCLUDING BUT NOT LIMITED TO
    55                           ; PROCUREMENT OF SUBSTITUTE GOODS OR SERVICES; LOSS OF USE, DATA OR PROFITS; OR BUSINESS
    56                           ; INTERRUPTION) HOWSOEVER CAUSED AND ON ANY THEORY OF LIABILITY, WHETHER IN CONTRACT, ST
      +                          RICT
    57                           ; LIABILITY, OR TORT (INCLUDING NEGLIGENCE OR OTHERWISE) ARISING IN ANY WAY OUT OF THE U
      +                          SE OF
    58                           ; THIS SOFTWARE, EVEN IF ADVISED OF THE POSSIBILITY OF SUCH DAMAGE.
    59                           ; 
    60                           ; 
    61                           ; Code-generator required, PIC18F67K40 Definitions
    62                           ; 
    63                           ; SFR Addresses
    64  0000                     
    65 ;; Function _do_I2C_RESET is unused but had its address taken
    66  0000                     
    67 ;; Function _do_I2C_IDLE is unused but had its address taken
    68  0000                     
    69 ;; Function _do_I2C_SEND_RESTART_READ is unused but had its address taken
    70  0000                     
    71 ;; Function _do_I2C_SEND_RESTART_WRITE is unused but had its address taken
    72  0000                     
    73 ;; Function _do_I2C_SEND_RESTART is unused but had its address taken
    74  0000                     
    75 ;; Function _do_I2C_SEND_STOP is unused but had its address taken
    76  0000                     
    77 ;; Function _do_I2C_SEND_ADR_READ is unused but had its address taken
    78  0000                     
    79 ;; Function _do_I2C_SEND_ADR_WRITE is unused but had its address taken
    80  0000                     
    81 ;; Function _do_I2C_RCEN is unused but had its address taken
    82  0000                     
    83 ;; Function _do_I2C_DO_ACK is unused but had its address taken
    84  0000                     
    85 ;; Function _do_I2C_DO_NACK_STOP is unused but had its address taken
    86  0000                     
    87 ;; Function _do_I2C_DO_NACK_RESTART is unused but had its address taken
    88  0000                     
    89 ;; Function _do_I2C_DO_ADDRESS_NACK is unused but had its address taken
    90  0000                     
    91 ;; Function _do_I2C_TX is unused but had its address taken
    92  0000                     
    93 ;; Function _do_I2C_RX is unused but had its address taken
    94  0000                     
    95 ;; Function _do_I2C_TX_EMPTY is unused but had its address taken
    96  0000                     
    97 ;; Function _i2c_ISR is unused but had its address taken
    98  0000                     
    99 ;; Function _i2c_busCollisionISR is unused but had its address taken
   100  0000                     
   101 ;; Function _returnStop@I2C_Master$F1538 is unused but had its address taken
   102  0000                     
   103 ;; Function _returnReset@I2C_Master$F1543 is unused but had its address taken
   104  0000                     
   105                           	psect	idataCOMRAM
   106  0010CA                     __pidataCOMRAM:
   107                           	callstack 0
   108                           
   109                           ;initializer for _old_tz_size
   110  0010CA  0020               	dw	32
   111                           
   112                           ;initializer for _old_tz
   113  0010CC  78                 	db	low _old_tz_buf
   114  0010CD  00                 	db	high _old_tz_buf
   115                           
   116                           	psect	smallconst
   117  000E00                     __psmallconst:
   118                           	callstack 0
   119  000E00  00                 	db	0
   120  000E01                     ___month_to_secs@secs_through_month:
   121                           	callstack 0
   122  000E01  0000               	dw	0
   123  000E03  0000               	dw	0
   124  000E05  DE80               	dw	56960
   125  000E07  0028               	dw	40
   126  000E09  C880               	dw	51328
   127  000E0B  004D               	dw	77
   128  000E0D  A700               	dw	42752
   129  000E0F  0076               	dw	118
   130  000E11  3400               	dw	13312
   131  000E13  009E               	dw	158
   132  000E15  1280               	dw	4736
   133  000E17  00C7               	dw	199
   134  000E19  9F80               	dw	40832
   135  000E1B  00EE               	dw	238
   136  000E1D  7E00               	dw	32256
   137  000E1F  0117               	dw	279
   138  000E21  5C80               	dw	23680
   139  000E23  0140               	dw	320
   140  000E25  E980               	dw	59776
   141  000E27  0167               	dw	359
   142  000E29  C800               	dw	51200
   143  000E2B  0190               	dw	400
   144  000E2D  5500               	dw	21760
   145  000E2F  01B8               	dw	440
   146  000E31                     __end_of___month_to_secs@secs_through_month:
   147                           	callstack 0
   148  000E31                     _fsmStateTable:
   149                           	callstack 0
   150  000E31  00                 	db	0
   151  000E32  00                 	db	0
   152  000E33  00                 	db	0
   153  000E34  00                 	db	0
   154  000E35  00                 	db	0
   155  000E36  00                 	db	0
   156  000E37  00                 	db	0
   157  000E38  00                 	db	0
   158  000E39  00                 	db	0
   159  000E3A  00                 	db	0
   160  000E3B  00                 	db	0
   161  000E3C  00                 	db	0
   162  000E3D  00                 	db	0
   163  000E3E  00                 	db	0
   164  000E3F  00                 	db	0
   165  000E40  00                 	db	0
   166  000E41  00                 	db	0
   167  000E42  00                 	db	0
   168  000E43  00                 	db	0
   169  000E44  00                 	db	0
   170  000E45  00                 	db	0
   171  000E46  00                 	db	0
   172  000E47  00                 	db	0
   173  000E48  00                 	db	0
   174  000E49  00                 	db	0
   175  000E4A  00                 	db	0
   176  000E4B  00                 	db	0
   177  000E4C  00                 	db	0
   178  000E4D  00                 	db	0
   179  000E4E  00                 	db	0
   180  000E4F  00                 	db	0
   181  000E50  00                 	db	0
   182  000E51  00                 	db	0
   183  000E52  00                 	db	0
   184  000E53  00                 	db	0
   185  000E54  00                 	db	0
   186  000E55  00                 	db	0
   187  000E56  00                 	db	0
   188  000E57  00                 	db	0
   189  000E58  00                 	db	0
   190  000E59  00                 	db	0
   191  000E5A  00                 	db	0
   192  000E5B  00                 	db	0
   193  000E5C  00                 	db	0
   194  000E5D  00                 	db	0
   195  000E5E  00                 	db	0
   196  000E5F  00                 	db	0
   197  000E60  00                 	db	0
   198  000E61                     __end_of_fsmStateTable:
   199                           	callstack 0
   200  000E61                     ___secs_to_tm@days_in_month:
   201                           	callstack 0
   202  000E61  1F                 	db	31
   203  000E62  1E                 	db	30
   204  000E63  1F                 	db	31
   205  000E64  1E                 	db	30
   206  000E65  1F                 	db	31
   207  000E66  1F                 	db	31
   208  000E67  1E                 	db	30
   209  000E68  1F                 	db	31
   210  000E69  1E                 	db	30
   211  000E6A  1F                 	db	31
   212  000E6B  1F                 	db	31
   213  000E6C  1D                 	db	29
   214  000E6D                     __end_of___secs_to_tm@days_in_month:
   215                           	callstack 0
   216  000E6D                     ___gmt:
   217                           	callstack 0
   218  000E6D  47                 	db	71
   219  000E6E  4D                 	db	77
   220  000E6F  54                 	db	84
   221  000E70  00                 	db	0
   222  000E71                     __end_of___gmt:
   223                           	callstack 0
   224  0000                     _T0CKIPPS	set	3572
   225  0000                     _PIR3bits	set	3638
   226  0000                     _PIE3bits	set	3628
   227  0000                     _PIR0bits	set	3635
   228  0000                     _INLVLH	set	3773
   229  0000                     _INLVLG	set	3768
   230  0000                     _INLVLF	set	3760
   231  0000                     _INLVLE	set	3755
   232  0000                     _INLVLD	set	3747
   233  0000                     _INLVLC	set	3742
   234  0000                     _INLVLB	set	3734
   235  0000                     _INLVLA	set	3726
   236  0000                     _SLRCONH	set	3774
   237  0000                     _SLRCONG	set	3769
   238  0000                     _SLRCONF	set	3761
   239  0000                     _SLRCONE	set	3756
   240  0000                     _SLRCOND	set	3748
   241  0000                     _SLRCONC	set	3743
   242  0000                     _SLRCONB	set	3735
   243  0000                     _SLRCONA	set	3727
   244  0000                     _ODCOND	set	3749
   245  0000                     _ODCONC	set	3744
   246  0000                     _ODCONH	set	3775
   247  0000                     _ODCONB	set	3736
   248  0000                     _ODCONG	set	3770
   249  0000                     _ODCONA	set	3728
   250  0000                     _ODCONF	set	3762
   251  0000                     _ODCONE	set	3757
   252  0000                     _WPUH	set	3776
   253  0000                     _WPUC	set	3745
   254  0000                     _WPUA	set	3729
   255  0000                     _WPUG	set	3771
   256  0000                     _WPUB	set	3737
   257  0000                     _WPUE	set	3758
   258  0000                     _WPUF	set	3763
   259  0000                     _WPUD	set	3750
   260  0000                     _ANSELA	set	3730
   261  0000                     _ANSELF	set	3764
   262  0000                     _ANSELG	set	3772
   263  0000                     _ANSELE	set	3759
   264  0000                     _ANSELB	set	3738
   265  0000                     _ANSELD	set	3751
   266  0000                     _PMD5	set	3665
   267  0000                     _PMD4	set	3664
   268  0000                     _PMD3	set	3663
   269  0000                     _PMD2	set	3662
   270  0000                     _PMD1	set	3661
   271  0000                     _PMD0	set	3660
   272  0000                     _OSCTUNE	set	3656
   273  0000                     _OSCFRQ	set	3657
   274  0000                     _OSCEN	set	3655
   275  0000                     _OSCCON3	set	3653
   276  0000                     _OSCCON1	set	3651
   277  0000                     _SSP1IF	set	29104
   278  0000                     _SSP1MSK	set	3987
   279  0000                     _SSP1BUF	set	3985
   280  0000                     _SSP1CON2bits	set	3990
   281  0000                     _SSP1STATbits	set	3988
   282  0000                     _SSP1CON1bits	set	3989
   283  0000                     _SSP1ADD	set	3986
   284  0000                     _SSP1STAT	set	3988
   285  0000                     _SSP1CON2	set	3990
   286  0000                     _SSP1CON1	set	3989
   287  0000                     _T0CON0bits	set	4053
   288  0000                     _T0CON0	set	4053
   289  0000                     _TMR0L	set	4051
   290  0000                     _TMR0H	set	4052
   291  0000                     _T0CON1	set	4054
   292  0000                     _LATDbits	set	3964
   293  0000                     _TRISD	set	3972
   294  0000                     _TRISC	set	3971
   295  0000                     _TRISH	set	3976
   296  0000                     _TRISB	set	3970
   297  0000                     _TRISG	set	3975
   298  0000                     _TRISA	set	3969
   299  0000                     _TRISF	set	3974
   300  0000                     _TRISE	set	3973
   301  0000                     _LATH	set	3968
   302  0000                     _LATC	set	3963
   303  0000                     _LATG	set	3967
   304  0000                     _LATB	set	3962
   305  0000                     _LATF	set	3966
   306  0000                     _LATA	set	3961
   307  0000                     _LATD	set	3964
   308  0000                     _LATE	set	3965
   309  000E71  00                 	db	0
   310  000E72  00                 	db	0	; dummy byte at the end
   311  0000                     
   312                           ; #config settings
   313                           
   314                           	psect	cinit
   315  000FF6                     __pcinit:
   316                           	callstack 0
   317  000FF6                     start_initialization:
   318                           	callstack 0
   319  000FF6                     __initialization:
   320                           	callstack 0
   321                           
   322                           ; Initialize objects allocated to COMRAM (4 bytes)
   323                           ; load TBLPTR registers with __pidataCOMRAM
   324  000FF6  0ECA               	movlw	low __pidataCOMRAM
   325  000FF8  6EF6               	movwf	tblptrl,c
   326  000FFA  0E10               	movlw	high __pidataCOMRAM
   327  000FFC  6EF7               	movwf	tblptrh,c
   328  000FFE  0E00               	movlw	low (__pidataCOMRAM shr (0+16))
   329  001000  6EF8               	movwf	tblptru,c
   330  001002  EE00  F05A         	lfsr	0,__pdataCOMRAM
   331  001006  EE10 F004          	lfsr	1,4
   332  00100A                     copy_data0:
   333  00100A  0009               	tblrd		*+
   334  00100C  CFF5 FFEE          	movff	tablat,postinc0
   335  001010  50E5               	movf	postdec1,w,c
   336  001012  50E1               	movf	fsr1l,w,c
   337  001014  E1FA               	bnz	copy_data0
   338                           
   339                           ; Clear objects allocated to BANK0 (114 bytes)
   340  001016  EE00  F060         	lfsr	0,__pbssBANK0
   341  00101A  0E72               	movlw	114
   342  00101C                     clear_0:
   343  00101C  6AEE               	clrf	postinc0,c
   344  00101E  06E8               	decf	wreg,f,c
   345  001020  E1FD               	bnz	clear_0
   346                           
   347                           ; Clear objects allocated to COMRAM (84 bytes)
   348  001022  EE00  F001         	lfsr	0,__pbssCOMRAM
   349  001026  0E54               	movlw	84
   350  001028                     clear_1:
   351  001028  6AEE               	clrf	postinc0,c
   352  00102A  06E8               	decf	wreg,f,c
   353  00102C  E1FD               	bnz	clear_1
   354  00102E                     end_of_initialization:
   355                           	callstack 0
   356  00102E                     __end_of__initialization:
   357                           	callstack 0
   358  00102E  0100               	movlb	0
   359  001030  EFD0  F007         	goto	_main	;jump to C main() function
   360                           
   361                           	psect	bssCOMRAM
   362  000001                     __pbssCOMRAM:
   363                           	callstack 0
   364  000001                     _i2c_status:
   365                           	callstack 0
   366  000001                     	ds	42
   367  00002B                     _dst_off:
   368                           	callstack 0
   369  00002B                     	ds	4
   370  00002F                     _timezone:
   371                           	callstack 0
   372  00002F                     	ds	4
   373  000033                     ___tzname:
   374                           	callstack 0
   375  000033                     	ds	4
   376  000037                     ___timezone:
   377                           	callstack 0
   378  000037                     	ds	4
   379  00003B                     _i2c1_driver_i2cISR:
   380                           	callstack 0
   381  00003B                     	ds	3
   382  00003E                     _i2c1_driver_busCollisionISR:
   383                           	callstack 0
   384  00003E                     	ds	3
   385  000041                     	ds	2
   386  000043                     	ds	2
   387  000045                     	ds	2
   388  000047                     	ds	2
   389  000049                     	ds	2
   390  00004B                     	ds	2
   391  00004D                     	ds	2
   392  00004F                     _daylight:
   393                           	callstack 0
   394  00004F                     	ds	2
   395  000051                     ___daylight:
   396                           	callstack 0
   397  000051                     	ds	2
   398  000053                     _errno:
   399                           	callstack 0
   400  000053                     	ds	2
   401                           
   402                           	psect	dataCOMRAM
   403  00005A                     __pdataCOMRAM:
   404                           	callstack 0
   405  00005A                     	ds	2
   406  00005C                     	ds	2
   407                           
   408                           	psect	bssBANK0
   409  000060                     __pbssBANK0:
   410                           	callstack 0
   411  000060                     _dateTime:
   412                           	callstack 0
   413  000060                     	ds	14
   414  00006E                     _tzname:
   415                           	callstack 0
   416  00006E                     	ds	6
   417  000074                     _lock:
   418                           	callstack 0
   419  000074                     	ds	4
   420  000078                     _old_tz_buf:
   421  000078                     	ds	32
   422  000098                     localtime@tm:
   423                           	callstack 0
   424  000098                     	ds	24
   425  0000B0                     _r1:
   426                           	callstack 0
   427  0000B0                     	ds	10
   428  0000BA                     _r0:
   429                           	callstack 0
   430  0000BA                     	ds	10
   431  0000C4                     _dst_name:
   432                           	callstack 0
   433  0000C4                     	ds	7
   434  0000CB                     _std_name:
   435                           	callstack 0
   436  0000CB                     	ds	7
   437                           
   438                           	psect	cstackCOMRAM
   439  000055                     __pcstackCOMRAM:
   440                           	callstack 0
   441  000055                     rtcc_write@data:
   442                           	callstack 0
   443                           
   444                           ; 1 bytes @ 0x0
   445  000055                     	ds	1
   446  000056                     ??_rtcc_write:
   447                           
   448                           ; 1 bytes @ 0x1
   449  000056                     	ds	1
   450  000057                     ??_rtc6_Initialize:
   451                           
   452                           ; 1 bytes @ 0x2
   453  000057                     	ds	1
   454  000058                     rtc6_Initialize@reg:
   455                           	callstack 0
   456                           
   457                           ; 1 bytes @ 0x3
   458  000058                     	ds	1
   459  000059                     ??_main:
   460                           
   461                           ; 1 bytes @ 0x4
   462  000059                     	ds	1
   463                           
   464 ;;
   465 ;;Main: autosize = 0, tempsize = 1, incstack = 0, save=0
   466 ;;
   467 ;; *************** function _main *****************
   468 ;; Defined at:
   469 ;;		line 10 in file "main.c"
   470 ;; Parameters:    Size  Location     Type
   471 ;;		None
   472 ;; Auto vars:     Size  Location     Type
   473 ;;		None
   474 ;; Return value:  Size  Location     Type
   475 ;;                  1    wreg      void 
   476 ;; Registers used:
   477 ;;		wreg, status,2, status,0, cstack
   478 ;; Tracked objects:
   479 ;;		On entry : 0/0
   480 ;;		On exit  : 0/0
   481 ;;		Unchanged: 0/0
   482 ;; Data sizes:     COMRAM   BANK0   BANK1   BANK2   BANK3   BANK4   BANK5   BANK6   BANK7   BANK8   BANK9  BANK10  BANK1
      +1  BANK12  BANK13
   483 ;;      Params:         0       0       0       0       0       0       0       0       0       0       0       0       
      +0       0       0
   484 ;;      Locals:         0       0       0       0       0       0       0       0       0       0       0       0       
      +0       0       0
   485 ;;      Temps:          1       0       0       0       0       0       0       0       0       0       0       0       
      +0       0       0
   486 ;;      Totals:         1       0       0       0       0       0       0       0       0       0       0       0       
      +0       0       0
   487 ;;Total ram usage:        1 bytes
   488 ;; Hardware stack levels required when called:    2
   489 ;; This function calls:
   490 ;;		_I2C_Initialize
   491 ;;		_SYSTEM_Initialize
   492 ;;		_TMR0_HasOverflowOccured
   493 ;;		_TMR0_StartTimer
   494 ;;		_TMR0_StopTimer
   495 ;;		_rtc6_Initialize
   496 ;; This function is called by:
   497 ;;		Startup code after reset
   498 ;; This function uses a non-reentrant model
   499 ;;
   500                           
   501                           	psect	text0
   502  000FA0                     __ptext0:
   503                           	callstack 0
   504  000FA0                     _main:
   505                           	callstack 29
   506  000FA0                     
   507                           ;main.c: 13:     SYSTEM_Initialize();
   508  000FA0  EC54  F008         	call	_SYSTEM_Initialize	;wreg free
   509                           
   510                           ;main.c: 14:     I2C_Initialize();
   511  000FA4  EC4A  F008         	call	_I2C_Initialize	;wreg free
   512  000FA8                     
   513                           ;main.c: 15:     rtc6_Initialize();
   514  000FA8  EC92  F007         	call	_rtc6_Initialize	;wreg free
   515  000FAC                     l3318:
   516                           
   517                           ;main.c: 32:     TMR0_StartTimer();
   518  000FAC  EC69  F008         	call	_TMR0_StartTimer	;wreg free
   519  000FB0                     l3320:
   520                           
   521                           ;main.c: 50:     {;main.c: 52:         if(TMR0_HasOverflowOccured()){
   522  000FB0  EC34  F008         	call	_TMR0_HasOverflowOccured	;wreg free
   523  000FB4  0900               	iorlw	0
   524  000FB6  B4D8               	btfsc	status,2,c
   525  000FB8  EFE0  F007         	goto	u1441
   526  000FBC  EFE2  F007         	goto	u1440
   527  000FC0                     u1441:
   528  000FC0  EFD8  F007         	goto	l3320
   529  000FC4                     u1440:
   530  000FC4                     
   531                           ;main.c: 55:             TMR0_StopTimer();
   532  000FC4  EC67  F008         	call	_TMR0_StopTimer	;wreg free
   533  000FC8                     
   534                           ;main.c: 56:             PIR0bits.TMR0IF = 0;
   535  000FC8  010E               	movlb	14	; () banked
   536  000FCA  9B33               	bcf	51,5,b	;volatile
   537  000FCC                     
   538                           ; BSR set to: 14
   539  000FCC  B27C               	btfsc	124,1,c	;volatile
   540  000FCE  EFEB  F007         	goto	u1451
   541  000FD2  EFEE  F007         	goto	u1450
   542  000FD6                     u1451:
   543  000FD6  0E01               	movlw	1
   544  000FD8  EFEF  F007         	goto	u1456
   545  000FDC                     u1450:
   546  000FDC  0E00               	movlw	0
   547  000FDE                     u1456:
   548  000FDE  0AFF               	xorlw	255
   549  000FE0  6E59               	movwf	??_main^0,c
   550  000FE2  4659               	rlncf	??_main^0,f,c
   551  000FE4  507C               	movf	124,w,c	;volatile
   552  000FE6  1859               	xorwf	??_main^0,w,c
   553  000FE8  0BFD               	andlw	-3
   554  000FEA  1859               	xorwf	??_main^0,w,c
   555  000FEC  6E7C               	movwf	124,c	;volatile
   556  000FEE  EFD6  F007         	goto	l3318
   557  000FF2  EF00  F000         	goto	start
   558  000FF6                     __end_of_main:
   559                           	callstack 0
   560                           
   561 ;; *************** function _rtc6_Initialize *****************
   562 ;; Defined at:
   563 ;;		line 28 in file "RTC.c"
   564 ;; Parameters:    Size  Location     Type
   565 ;;		None
   566 ;; Auto vars:     Size  Location     Type
   567 ;;  reg             1    3[COMRAM] unsigned char 
   568 ;; Return value:  Size  Location     Type
   569 ;;                  1    wreg      void 
   570 ;; Registers used:
   571 ;;		wreg, status,2, status,0, cstack
   572 ;; Tracked objects:
   573 ;;		On entry : 0/0
   574 ;;		On exit  : 0/0
   575 ;;		Unchanged: 0/0
   576 ;; Data sizes:     COMRAM   BANK0   BANK1   BANK2   BANK3   BANK4   BANK5   BANK6   BANK7   BANK8   BANK9  BANK10  BANK1
      +1  BANK12  BANK13
   577 ;;      Params:         0       0       0       0       0       0       0       0       0       0       0       0       
      +0       0       0
   578 ;;      Locals:         1       0       0       0       0       0       0       0       0       0       0       0       
      +0       0       0
   579 ;;      Temps:          1       0       0       0       0       0       0       0       0       0       0       0       
      +0       0       0
   580 ;;      Totals:         2       0       0       0       0       0       0       0       0       0       0       0       
      +0       0       0
   581 ;;Total ram usage:        2 bytes
   582 ;; Hardware stack levels used:    1
   583 ;; Hardware stack levels required when called:    1
   584 ;; This function calls:
   585 ;;		_rtcc_read
   586 ;;		_rtcc_write
   587 ;; This function is called by:
   588 ;;		_main
   589 ;; This function uses a non-reentrant model
   590 ;;
   591                           
   592                           	psect	text1
   593  000F24                     __ptext1:
   594                           	callstack 0
   595  000F24                     _rtc6_Initialize:
   596                           	callstack 29
   597  000F24                     
   598                           ;RTC.c: 29:     uint8_t reg = 0;
   599  000F24  0E00               	movlw	0
   600  000F26  6E58               	movwf	rtc6_Initialize@reg^0,c
   601  000F28                     
   602                           ;RTC.c: 31:     dateTime.day = (rtcc_read(0x03) & 0x07);
   603  000F28  0E03               	movlw	3
   604  000F2A  EC6B  F008         	call	_rtcc_read
   605  000F2E  6E57               	movwf	??_rtc6_Initialize^0,c
   606  000F30  0E07               	movlw	7
   607  000F32  1657               	andwf	??_rtc6_Initialize^0,f,c
   608  000F34  5057               	movf	??_rtc6_Initialize^0,w,c
   609  000F36  0100               	movlb	0	; () banked
   610  000F38  6F6C               	movwf	(_dateTime+12)& (0+255),b
   611  000F3A  6B6D               	clrf	(_dateTime+13)& (0+255),b
   612  000F3C                     
   613                           ; BSR set to: 0
   614                           ;RTC.c: 32:     rtcc_write(0x03, (dateTime.day | 0x08));
   615  000F3C  516C               	movf	(_dateTime+12)& (0+255),w,b
   616  000F3E  0908               	iorlw	8
   617  000F40  6E55               	movwf	rtcc_write@data^0,c
   618  000F42  0E03               	movlw	3
   619  000F44  EC5D  F008         	call	_rtcc_write
   620  000F48                     
   621                           ;RTC.c: 33:     dateTime.sec = rtcc_read(0x00);
   622  000F48  0E00               	movlw	0
   623  000F4A  EC6B  F008         	call	_rtcc_read
   624  000F4E  6E57               	movwf	??_rtc6_Initialize^0,c
   625  000F50  5057               	movf	??_rtc6_Initialize^0,w,c
   626  000F52  0100               	movlb	0	; () banked
   627  000F54  6F60               	movwf	_dateTime& (0+255),b
   628  000F56  6B61               	clrf	(_dateTime+1)& (0+255),b
   629  000F58                     
   630                           ; BSR set to: 0
   631                           ;RTC.c: 37:     rtcc_write(0x07, 0x00 + 0x40 + 0x00);
   632  000F58  0E40               	movlw	64
   633  000F5A  6E55               	movwf	rtcc_write@data^0,c
   634  000F5C  0E07               	movlw	7
   635  000F5E  EC5D  F008         	call	_rtcc_write
   636  000F62                     
   637                           ;RTC.c: 40:     rtcc_write(0x00, dateTime.sec | 0x80);
   638  000F62  0100               	movlb	0	; () banked
   639  000F64  5160               	movf	_dateTime& (0+255),w,b
   640  000F66  0980               	iorlw	128
   641  000F68  6E55               	movwf	rtcc_write@data^0,c
   642  000F6A  0E00               	movlw	0
   643  000F6C  EC5D  F008         	call	_rtcc_write
   644                           
   645                           ;RTC.c: 41:     while (!reg) {
   646  000F70  EFC0  F007         	goto	l3018
   647  000F74                     l3014:
   648                           
   649                           ;RTC.c: 42:         reg = rtcc_read(0x03);
   650  000F74  0E03               	movlw	3
   651  000F76  EC6B  F008         	call	_rtcc_read
   652  000F7A  6E58               	movwf	rtc6_Initialize@reg^0,c
   653  000F7C                     
   654                           ;RTC.c: 43:         reg &= 0x20;
   655  000F7C  0E20               	movlw	32
   656  000F7E  1658               	andwf	rtc6_Initialize@reg^0,f,c
   657  000F80                     l3018:
   658                           
   659                           ;RTC.c: 41:     while (!reg) {
   660  000F80  5058               	movf	rtc6_Initialize@reg^0,w,c
   661  000F82  B4D8               	btfsc	status,2,c
   662  000F84  EFC6  F007         	goto	u1041
   663  000F88  EFC8  F007         	goto	u1040
   664  000F8C                     u1041:
   665  000F8C  EFBA  F007         	goto	l3014
   666  000F90                     u1040:
   667  000F90                     
   668                           ;RTC.c: 47:     rtcc_write(0x03, dateTime.day | (0x08 & 0xEF));
   669  000F90  0100               	movlb	0	; () banked
   670  000F92  516C               	movf	(_dateTime+12)& (0+255),w,b
   671  000F94  0908               	iorlw	8
   672  000F96  6E55               	movwf	rtcc_write@data^0,c
   673  000F98  0E03               	movlw	3
   674  000F9A  EC5D  F008         	call	_rtcc_write
   675  000F9E  0012               	return		;funcret
   676  000FA0                     __end_of_rtc6_Initialize:
   677                           	callstack 0
   678                           
   679 ;; *************** function _rtcc_write *****************
   680 ;; Defined at:
   681 ;;		line 23 in file "RTC.c"
   682 ;; Parameters:    Size  Location     Type
   683 ;;  addr            1    wreg     unsigned char 
   684 ;;  data            1    0[COMRAM] unsigned char 
   685 ;; Auto vars:     Size  Location     Type
   686 ;;  addr            1    0[COMRAM] unsigned char 
   687 ;; Return value:  Size  Location     Type
   688 ;;                  1    wreg      void 
   689 ;; Registers used:
   690 ;;		wreg, status,2, cstack
   691 ;; Tracked objects:
   692 ;;		On entry : 0/0
   693 ;;		On exit  : 0/0
   694 ;;		Unchanged: 0/0
   695 ;; Data sizes:     COMRAM   BANK0   BANK1   BANK2   BANK3   BANK4   BANK5   BANK6   BANK7   BANK8   BANK9  BANK10  BANK1
      +1  BANK12  BANK13
   696 ;;      Params:         1       0       0       0       0       0       0       0       0       0       0       0       
      +0       0       0
   697 ;;      Locals:         0       0       0       0       0       0       0       0       0       0       0       0       
      +0       0       0
   698 ;;      Temps:          1       0       0       0       0       0       0       0       0       0       0       0       
      +0       0       0
   699 ;;      Totals:         2       0       0       0       0       0       0       0       0       0       0       0       
      +0       0       0
   700 ;;Total ram usage:        2 bytes
   701 ;; Hardware stack levels used:    1
   702 ;; This function calls:
   703 ;;		Nothing
   704 ;; This function is called by:
   705 ;;		_rtc6_Initialize
   706 ;;		_rtc6_EnableAlarms
   707 ;;		_rtc6_SetComponent
   708 ;;		_rtc6_SetAlarm0
   709 ;;		_rtc6_ClearAlarm0
   710 ;;		_rtc6_SetAlarm1
   711 ;;		_rtc6_ClearAlarm1
   712 ;; This function uses a non-reentrant model
   713 ;;
   714                           
   715                           	psect	text2
   716  0010BA                     __ptext2:
   717                           	callstack 0
   718  0010BA                     _rtcc_write:
   719                           	callstack 29
   720  0010BA                     
   721                           ;RTC.c: 25:     _delay((unsigned long)((5)*(8000000/4000.0)));
   722  0010BA  0E0D               	movlw	13
   723  0010BC  6E56               	movwf	??_rtcc_write^0,c
   724  0010BE  0EFC               	movlw	252
   725  0010C0                     u1557:
   726  0010C0  2EE8               	decfsz	wreg,f,c
   727  0010C2  D7FE               	bra	u1557
   728  0010C4  2E56               	decfsz	??_rtcc_write^0,f,c
   729  0010C6  D7FC               	bra	u1557
   730  0010C8  0012               	return		;funcret
   731  0010CA                     __end_of_rtcc_write:
   732                           	callstack 0
   733                           
   734 ;; *************** function _rtcc_read *****************
   735 ;; Defined at:
   736 ;;		line 19 in file "RTC.c"
   737 ;; Parameters:    Size  Location     Type
   738 ;;  addr            1    wreg     unsigned char 
   739 ;; Auto vars:     Size  Location     Type
   740 ;;  addr            1    0[COMRAM] unsigned char 
   741 ;; Return value:  Size  Location     Type
   742 ;;                  1    wreg      unsigned char 
   743 ;; Registers used:
   744 ;;		wreg
   745 ;; Tracked objects:
   746 ;;		On entry : 0/0
   747 ;;		On exit  : 0/0
   748 ;;		Unchanged: 0/0
   749 ;; Data sizes:     COMRAM   BANK0   BANK1   BANK2   BANK3   BANK4   BANK5   BANK6   BANK7   BANK8   BANK9  BANK10  BANK1
      +1  BANK12  BANK13
   750 ;;      Params:         0       0       0       0       0       0       0       0       0       0       0       0       
      +0       0       0
   751 ;;      Locals:         0       0       0       0       0       0       0       0       0       0       0       0       
      +0       0       0
   752 ;;      Temps:          0       0       0       0       0       0       0       0       0       0       0       0       
      +0       0       0
   753 ;;      Totals:         0       0       0       0       0       0       0       0       0       0       0       0       
      +0       0       0
   754 ;;Total ram usage:        0 bytes
   755 ;; Hardware stack levels used:    1
   756 ;; This function calls:
   757 ;;		Nothing
   758 ;; This function is called by:
   759 ;;		_rtc6_Initialize
   760 ;;		_rtc6_EnableAlarms
   761 ;;		_rtc6_SetComponent
   762 ;;		_rtc6_GetComponent
   763 ;;		_rtc6_ClearAlarm0
   764 ;;		_rtc6_ClearAlarm1
   765 ;; This function uses a non-reentrant model
   766 ;;
   767                           
   768                           	psect	text3
   769  0010D6                     __ptext3:
   770                           	callstack 0
   771  0010D6                     _rtcc_read:
   772                           	callstack 29
   773  0010D6  0012               	return		;funcret
   774  0010D8                     __end_of_rtcc_read:
   775                           	callstack 0
   776                           
   777 ;; *************** function _TMR0_StopTimer *****************
   778 ;; Defined at:
   779 ;;		line 86 in file "mcc_generated_files/tmr0.c"
   780 ;; Parameters:    Size  Location     Type
   781 ;;		None
   782 ;; Auto vars:     Size  Location     Type
   783 ;;		None
   784 ;; Return value:  Size  Location     Type
   785 ;;                  1    wreg      void 
   786 ;; Registers used:
   787 ;;		None
   788 ;; Tracked objects:
   789 ;;		On entry : 0/0
   790 ;;		On exit  : 0/0
   791 ;;		Unchanged: 0/0
   792 ;; Data sizes:     COMRAM   BANK0   BANK1   BANK2   BANK3   BANK4   BANK5   BANK6   BANK7   BANK8   BANK9  BANK10  BANK1
      +1  BANK12  BANK13
   793 ;;      Params:         0       0       0       0       0       0       0       0       0       0       0       0       
      +0       0       0
   794 ;;      Locals:         0       0       0       0       0       0       0       0       0       0       0       0       
      +0       0       0
   795 ;;      Temps:          0       0       0       0       0       0       0       0       0       0       0       0       
      +0       0       0
   796 ;;      Totals:         0       0       0       0       0       0       0       0       0       0       0       0       
      +0       0       0
   797 ;;Total ram usage:        0 bytes
   798 ;; Hardware stack levels used:    1
   799 ;; This function calls:
   800 ;;		Nothing
   801 ;; This function is called by:
   802 ;;		_main
   803 ;; This function uses a non-reentrant model
   804 ;;
   805                           
   806                           	psect	text4
   807  0010CE                     __ptext4:
   808                           	callstack 0
   809  0010CE                     _TMR0_StopTimer:
   810                           	callstack 30
   811  0010CE                     
   812                           ;mcc_generated_files/tmr0.c: 89:     T0CON0bits.T0EN = 0;
   813  0010CE  9ED5               	bcf	213,7,c	;volatile
   814  0010D0  0012               	return		;funcret
   815  0010D2                     __end_of_TMR0_StopTimer:
   816                           	callstack 0
   817                           
   818 ;; *************** function _TMR0_StartTimer *****************
   819 ;; Defined at:
   820 ;;		line 80 in file "mcc_generated_files/tmr0.c"
   821 ;; Parameters:    Size  Location     Type
   822 ;;		None
   823 ;; Auto vars:     Size  Location     Type
   824 ;;		None
   825 ;; Return value:  Size  Location     Type
   826 ;;                  1    wreg      void 
   827 ;; Registers used:
   828 ;;		None
   829 ;; Tracked objects:
   830 ;;		On entry : 0/0
   831 ;;		On exit  : 0/0
   832 ;;		Unchanged: 0/0
   833 ;; Data sizes:     COMRAM   BANK0   BANK1   BANK2   BANK3   BANK4   BANK5   BANK6   BANK7   BANK8   BANK9  BANK10  BANK1
      +1  BANK12  BANK13
   834 ;;      Params:         0       0       0       0       0       0       0       0       0       0       0       0       
      +0       0       0
   835 ;;      Locals:         0       0       0       0       0       0       0       0       0       0       0       0       
      +0       0       0
   836 ;;      Temps:          0       0       0       0       0       0       0       0       0       0       0       0       
      +0       0       0
   837 ;;      Totals:         0       0       0       0       0       0       0       0       0       0       0       0       
      +0       0       0
   838 ;;Total ram usage:        0 bytes
   839 ;; Hardware stack levels used:    1
   840 ;; This function calls:
   841 ;;		Nothing
   842 ;; This function is called by:
   843 ;;		_main
   844 ;; This function uses a non-reentrant model
   845 ;;
   846                           
   847                           	psect	text5
   848  0010D2                     __ptext5:
   849                           	callstack 0
   850  0010D2                     _TMR0_StartTimer:
   851                           	callstack 30
   852  0010D2                     
   853                           ;mcc_generated_files/tmr0.c: 83:     T0CON0bits.T0EN = 1;
   854  0010D2  8ED5               	bsf	213,7,c	;volatile
   855  0010D4  0012               	return		;funcret
   856  0010D6                     __end_of_TMR0_StartTimer:
   857                           	callstack 0
   858                           
   859 ;; *************** function _TMR0_HasOverflowOccured *****************
   860 ;; Defined at:
   861 ;;		line 114 in file "mcc_generated_files/tmr0.c"
   862 ;; Parameters:    Size  Location     Type
   863 ;;		None
   864 ;; Auto vars:     Size  Location     Type
   865 ;;		None
   866 ;; Return value:  Size  Location     Type
   867 ;;                  1    wreg      _Bool 
   868 ;; Registers used:
   869 ;;		wreg
   870 ;; Tracked objects:
   871 ;;		On entry : 0/0
   872 ;;		On exit  : 0/0
   873 ;;		Unchanged: 0/0
   874 ;; Data sizes:     COMRAM   BANK0   BANK1   BANK2   BANK3   BANK4   BANK5   BANK6   BANK7   BANK8   BANK9  BANK10  BANK1
      +1  BANK12  BANK13
   875 ;;      Params:         0       0       0       0       0       0       0       0       0       0       0       0       
      +0       0       0
   876 ;;      Locals:         0       0       0       0       0       0       0       0       0       0       0       0       
      +0       0       0
   877 ;;      Temps:          0       0       0       0       0       0       0       0       0       0       0       0       
      +0       0       0
   878 ;;      Totals:         0       0       0       0       0       0       0       0       0       0       0       0       
      +0       0       0
   879 ;;Total ram usage:        0 bytes
   880 ;; Hardware stack levels used:    1
   881 ;; This function calls:
   882 ;;		Nothing
   883 ;; This function is called by:
   884 ;;		_main
   885 ;; This function uses a non-reentrant model
   886 ;;
   887                           
   888                           	psect	text6
   889  001068                     __ptext6:
   890                           	callstack 0
   891  001068                     _TMR0_HasOverflowOccured:
   892                           	callstack 30
   893  001068                     
   894                           ;mcc_generated_files/tmr0.c: 117:     return(PIR0bits.TMR0IF);
   895  001068  010E               	movlb	14	; () banked
   896  00106A  BB33               	btfsc	51,5,b	;volatile
   897  00106C  EF3A  F008         	goto	u51
   898  001070  EF3D  F008         	goto	u50
   899  001074                     u51:
   900  001074  0E01               	movlw	1
   901  001076  EF3E  F008         	goto	u56
   902  00107A                     u50:
   903  00107A  0E00               	movlw	0
   904  00107C                     u56:
   905  00107C                     
   906                           ; BSR set to: 14
   907  00107C  0012               	return		;funcret
   908  00107E                     __end_of_TMR0_HasOverflowOccured:
   909                           	callstack 0
   910                           
   911 ;; *************** function _SYSTEM_Initialize *****************
   912 ;; Defined at:
   913 ;;		line 50 in file "mcc_generated_files/mcc.c"
   914 ;; Parameters:    Size  Location     Type
   915 ;;		None
   916 ;; Auto vars:     Size  Location     Type
   917 ;;		None
   918 ;; Return value:  Size  Location     Type
   919 ;;                  1    wreg      void 
   920 ;; Registers used:
   921 ;;		wreg, status,2, cstack
   922 ;; Tracked objects:
   923 ;;		On entry : 0/0
   924 ;;		On exit  : 0/0
   925 ;;		Unchanged: 0/0
   926 ;; Data sizes:     COMRAM   BANK0   BANK1   BANK2   BANK3   BANK4   BANK5   BANK6   BANK7   BANK8   BANK9  BANK10  BANK1
      +1  BANK12  BANK13
   927 ;;      Params:         0       0       0       0       0       0       0       0       0       0       0       0       
      +0       0       0
   928 ;;      Locals:         0       0       0       0       0       0       0       0       0       0       0       0       
      +0       0       0
   929 ;;      Temps:          0       0       0       0       0       0       0       0       0       0       0       0       
      +0       0       0
   930 ;;      Totals:         0       0       0       0       0       0       0       0       0       0       0       0       
      +0       0       0
   931 ;;Total ram usage:        0 bytes
   932 ;; Hardware stack levels used:    1
   933 ;; Hardware stack levels required when called:    1
   934 ;; This function calls:
   935 ;;		_OSCILLATOR_Initialize
   936 ;;		_PIN_MANAGER_Initialize
   937 ;;		_PMD_Initialize
   938 ;;		_TMR0_Initialize
   939 ;; This function is called by:
   940 ;;		_main
   941 ;; This function uses a non-reentrant model
   942 ;;
   943                           
   944                           	psect	text7
   945  0010A8                     __ptext7:
   946                           	callstack 0
   947  0010A8                     _SYSTEM_Initialize:
   948                           	callstack 29
   949  0010A8                     
   950                           ;mcc_generated_files/mcc.c: 52:     PMD_Initialize();
   951  0010A8  EC1A  F008         	call	_PMD_Initialize	;wreg free
   952                           
   953                           ;mcc_generated_files/mcc.c: 53:     PIN_MANAGER_Initialize();
   954  0010AC  EC3A  F007         	call	_PIN_MANAGER_Initialize	;wreg free
   955                           
   956                           ;mcc_generated_files/mcc.c: 54:     OSCILLATOR_Initialize();
   957  0010B0  EC28  F008         	call	_OSCILLATOR_Initialize	;wreg free
   958                           
   959                           ;mcc_generated_files/mcc.c: 55:     TMR0_Initialize();
   960  0010B4  EC3F  F008         	call	_TMR0_Initialize	;wreg free
   961  0010B8  0012               	return		;funcret
   962  0010BA                     __end_of_SYSTEM_Initialize:
   963                           	callstack 0
   964                           
   965 ;; *************** function _TMR0_Initialize *****************
   966 ;; Defined at:
   967 ;;		line 60 in file "mcc_generated_files/tmr0.c"
   968 ;; Parameters:    Size  Location     Type
   969 ;;		None
   970 ;; Auto vars:     Size  Location     Type
   971 ;;		None
   972 ;; Return value:  Size  Location     Type
   973 ;;                  1    wreg      void 
   974 ;; Registers used:
   975 ;;		wreg, status,2
   976 ;; Tracked objects:
   977 ;;		On entry : 0/0
   978 ;;		On exit  : 0/0
   979 ;;		Unchanged: 0/0
   980 ;; Data sizes:     COMRAM   BANK0   BANK1   BANK2   BANK3   BANK4   BANK5   BANK6   BANK7   BANK8   BANK9  BANK10  BANK1
      +1  BANK12  BANK13
   981 ;;      Params:         0       0       0       0       0       0       0       0       0       0       0       0       
      +0       0       0
   982 ;;      Locals:         0       0       0       0       0       0       0       0       0       0       0       0       
      +0       0       0
   983 ;;      Temps:          0       0       0       0       0       0       0       0       0       0       0       0       
      +0       0       0
   984 ;;      Totals:         0       0       0       0       0       0       0       0       0       0       0       0       
      +0       0       0
   985 ;;Total ram usage:        0 bytes
   986 ;; Hardware stack levels used:    1
   987 ;; This function calls:
   988 ;;		Nothing
   989 ;; This function is called by:
   990 ;;		_SYSTEM_Initialize
   991 ;; This function uses a non-reentrant model
   992 ;;
   993                           
   994                           	psect	text8
   995  00107E                     __ptext8:
   996                           	callstack 0
   997  00107E                     _TMR0_Initialize:
   998                           	callstack 29
   999  00107E                     
  1000                           ;mcc_generated_files/tmr0.c: 65:     T0CON1 = 0x0C;
  1001  00107E  0E0C               	movlw	12
  1002  001080  6ED6               	movwf	214,c	;volatile
  1003                           
  1004                           ;mcc_generated_files/tmr0.c: 68:     TMR0H = 0x06;
  1005  001082  0E06               	movlw	6
  1006  001084  6ED4               	movwf	212,c	;volatile
  1007                           
  1008                           ;mcc_generated_files/tmr0.c: 71:     TMR0L = 0x00;
  1009  001086  0E00               	movlw	0
  1010  001088  6ED3               	movwf	211,c	;volatile
  1011  00108A                     
  1012                           ;mcc_generated_files/tmr0.c: 74:     PIR0bits.TMR0IF = 0;
  1013  00108A  010E               	movlb	14	; () banked
  1014  00108C  9B33               	bcf	51,5,b	;volatile
  1015                           
  1016                           ;mcc_generated_files/tmr0.c: 77:     T0CON0 = 0x86;
  1017  00108E  0E86               	movlw	134
  1018  001090  6ED5               	movwf	213,c	;volatile
  1019  001092                     
  1020                           ; BSR set to: 14
  1021  001092  0012               	return		;funcret
  1022  001094                     __end_of_TMR0_Initialize:
  1023                           	callstack 0
  1024                           
  1025 ;; *************** function _PMD_Initialize *****************
  1026 ;; Defined at:
  1027 ;;		line 72 in file "mcc_generated_files/mcc.c"
  1028 ;; Parameters:    Size  Location     Type
  1029 ;;		None
  1030 ;; Auto vars:     Size  Location     Type
  1031 ;;		None
  1032 ;; Return value:  Size  Location     Type
  1033 ;;                  1    wreg      void 
  1034 ;; Registers used:
  1035 ;;		wreg, status,2
  1036 ;; Tracked objects:
  1037 ;;		On entry : 0/0
  1038 ;;		On exit  : 0/0
  1039 ;;		Unchanged: 0/0
  1040 ;; Data sizes:     COMRAM   BANK0   BANK1   BANK2   BANK3   BANK4   BANK5   BANK6   BANK7   BANK8   BANK9  BANK10  BANK1
      +1  BANK12  BANK13
  1041 ;;      Params:         0       0       0       0       0       0       0       0       0       0       0       0       
      +0       0       0
  1042 ;;      Locals:         0       0       0       0       0       0       0       0       0       0       0       0       
      +0       0       0
  1043 ;;      Temps:          0       0       0       0       0       0       0       0       0       0       0       0       
      +0       0       0
  1044 ;;      Totals:         0       0       0       0       0       0       0       0       0       0       0       0       
      +0       0       0
  1045 ;;Total ram usage:        0 bytes
  1046 ;; Hardware stack levels used:    1
  1047 ;; This function calls:
  1048 ;;		Nothing
  1049 ;; This function is called by:
  1050 ;;		_SYSTEM_Initialize
  1051 ;; This function uses a non-reentrant model
  1052 ;;
  1053                           
  1054                           	psect	text9
  1055  001034                     __ptext9:
  1056                           	callstack 0
  1057  001034                     _PMD_Initialize:
  1058                           	callstack 29
  1059  001034                     
  1060                           ;mcc_generated_files/mcc.c: 75:     PMD0 = 0x00;
  1061  001034  0E00               	movlw	0
  1062  001036  010E               	movlb	14	; () banked
  1063  001038  6F4C               	movwf	76,b	;volatile
  1064                           
  1065                           ;mcc_generated_files/mcc.c: 77:     PMD1 = 0x00;
  1066  00103A  0E00               	movlw	0
  1067  00103C  6F4D               	movwf	77,b	;volatile
  1068                           
  1069                           ;mcc_generated_files/mcc.c: 79:     PMD2 = 0x00;
  1070  00103E  0E00               	movlw	0
  1071  001040  6F4E               	movwf	78,b	;volatile
  1072                           
  1073                           ;mcc_generated_files/mcc.c: 81:     PMD3 = 0x00;
  1074  001042  0E00               	movlw	0
  1075  001044  6F4F               	movwf	79,b	;volatile
  1076                           
  1077                           ;mcc_generated_files/mcc.c: 83:     PMD4 = 0x00;
  1078  001046  0E00               	movlw	0
  1079  001048  6F50               	movwf	80,b	;volatile
  1080                           
  1081                           ;mcc_generated_files/mcc.c: 85:     PMD5 = 0x00;
  1082  00104A  0E00               	movlw	0
  1083  00104C  6F51               	movwf	81,b	;volatile
  1084  00104E                     
  1085                           ; BSR set to: 14
  1086  00104E  0012               	return		;funcret
  1087  001050                     __end_of_PMD_Initialize:
  1088                           	callstack 0
  1089                           
  1090 ;; *************** function _PIN_MANAGER_Initialize *****************
  1091 ;; Defined at:
  1092 ;;		line 55 in file "mcc_generated_files/pin_manager.c"
  1093 ;; Parameters:    Size  Location     Type
  1094 ;;		None
  1095 ;; Auto vars:     Size  Location     Type
  1096 ;;		None
  1097 ;; Return value:  Size  Location     Type
  1098 ;;                  1    wreg      void 
  1099 ;; Registers used:
  1100 ;;		wreg, status,2
  1101 ;; Tracked objects:
  1102 ;;		On entry : 0/0
  1103 ;;		On exit  : 0/0
  1104 ;;		Unchanged: 0/0
  1105 ;; Data sizes:     COMRAM   BANK0   BANK1   BANK2   BANK3   BANK4   BANK5   BANK6   BANK7   BANK8   BANK9  BANK10  BANK1
      +1  BANK12  BANK13
  1106 ;;      Params:         0       0       0       0       0       0       0       0       0       0       0       0       
      +0       0       0
  1107 ;;      Locals:         0       0       0       0       0       0       0       0       0       0       0       0       
      +0       0       0
  1108 ;;      Temps:          0       0       0       0       0       0       0       0       0       0       0       0       
      +0       0       0
  1109 ;;      Totals:         0       0       0       0       0       0       0       0       0       0       0       0       
      +0       0       0
  1110 ;;Total ram usage:        0 bytes
  1111 ;; Hardware stack levels used:    1
  1112 ;; This function calls:
  1113 ;;		Nothing
  1114 ;; This function is called by:
  1115 ;;		_SYSTEM_Initialize
  1116 ;; This function uses a non-reentrant model
  1117 ;;
  1118                           
  1119                           	psect	text10
  1120  000E74                     __ptext10:
  1121                           	callstack 0
  1122  000E74                     _PIN_MANAGER_Initialize:
  1123                           	callstack 29
  1124  000E74                     
  1125                           ;mcc_generated_files/pin_manager.c: 60:     LATE = 0x00;
  1126  000E74  0E00               	movlw	0
  1127  000E76  6E7D               	movwf	125,c	;volatile
  1128                           
  1129                           ;mcc_generated_files/pin_manager.c: 61:     LATD = 0x02;
  1130  000E78  0E02               	movlw	2
  1131  000E7A  6E7C               	movwf	124,c	;volatile
  1132                           
  1133                           ;mcc_generated_files/pin_manager.c: 62:     LATA = 0x00;
  1134  000E7C  0E00               	movlw	0
  1135  000E7E  6E79               	movwf	121,c	;volatile
  1136                           
  1137                           ;mcc_generated_files/pin_manager.c: 63:     LATF = 0x00;
  1138  000E80  0E00               	movlw	0
  1139  000E82  6E7E               	movwf	126,c	;volatile
  1140                           
  1141                           ;mcc_generated_files/pin_manager.c: 64:     LATB = 0x00;
  1142  000E84  0E00               	movlw	0
  1143  000E86  6E7A               	movwf	122,c	;volatile
  1144                           
  1145                           ;mcc_generated_files/pin_manager.c: 65:     LATG = 0x00;
  1146  000E88  0E00               	movlw	0
  1147  000E8A  6E7F               	movwf	127,c	;volatile
  1148                           
  1149                           ;mcc_generated_files/pin_manager.c: 66:     LATC = 0x80;
  1150  000E8C  0E80               	movlw	128
  1151  000E8E  6E7B               	movwf	123,c	;volatile
  1152                           
  1153                           ;mcc_generated_files/pin_manager.c: 67:     LATH = 0x00;
  1154  000E90  0E00               	movlw	0
  1155  000E92  6E80               	movwf	128,c	;volatile
  1156  000E94                     
  1157                           ;mcc_generated_files/pin_manager.c: 72:     TRISE = 0xFF;
  1158  000E94  6885               	setf	133,c	;volatile
  1159  000E96                     
  1160                           ;mcc_generated_files/pin_manager.c: 73:     TRISF = 0xFF;
  1161  000E96  6886               	setf	134,c	;volatile
  1162  000E98                     
  1163                           ;mcc_generated_files/pin_manager.c: 74:     TRISA = 0xFF;
  1164  000E98  6881               	setf	129,c	;volatile
  1165                           
  1166                           ;mcc_generated_files/pin_manager.c: 75:     TRISG = 0xDF;
  1167  000E9A  0EDF               	movlw	223
  1168  000E9C  6E87               	movwf	135,c	;volatile
  1169  000E9E                     
  1170                           ;mcc_generated_files/pin_manager.c: 76:     TRISB = 0xFF;
  1171  000E9E  6882               	setf	130,c	;volatile
  1172                           
  1173                           ;mcc_generated_files/pin_manager.c: 77:     TRISH = 0x0F;
  1174  000EA0  0E0F               	movlw	15
  1175  000EA2  6E88               	movwf	136,c	;volatile
  1176  000EA4                     
  1177                           ;mcc_generated_files/pin_manager.c: 78:     TRISC = 0xFF;
  1178  000EA4  6883               	setf	131,c	;volatile
  1179                           
  1180                           ;mcc_generated_files/pin_manager.c: 79:     TRISD = 0xFD;
  1181  000EA6  0EFD               	movlw	253
  1182  000EA8  6E84               	movwf	132,c	;volatile
  1183                           
  1184                           ;mcc_generated_files/pin_manager.c: 84:     ANSELD = 0xFD;
  1185  000EAA  0EFD               	movlw	253
  1186  000EAC  010E               	movlb	14	; () banked
  1187  000EAE  6FA7               	movwf	167,b	;volatile
  1188  000EB0                     
  1189                           ; BSR set to: 14
  1190                           ;mcc_generated_files/pin_manager.c: 85:     ANSELB = 0xFF;
  1191  000EB0  699A               	setf	154,b	;volatile
  1192  000EB2                     
  1193                           ; BSR set to: 14
  1194                           ;mcc_generated_files/pin_manager.c: 86:     ANSELE = 0xFF;
  1195  000EB2  69AF               	setf	175,b	;volatile
  1196  000EB4                     
  1197                           ; BSR set to: 14
  1198                           ;mcc_generated_files/pin_manager.c: 87:     ANSELG = 0xFF;
  1199  000EB4  69BC               	setf	188,b	;volatile
  1200  000EB6                     
  1201                           ; BSR set to: 14
  1202                           ;mcc_generated_files/pin_manager.c: 88:     ANSELF = 0xFF;
  1203  000EB6  69B4               	setf	180,b	;volatile
  1204                           
  1205                           ;mcc_generated_files/pin_manager.c: 89:     ANSELA = 0xEF;
  1206  000EB8  0EEF               	movlw	239
  1207  000EBA  6F92               	movwf	146,b	;volatile
  1208                           
  1209                           ;mcc_generated_files/pin_manager.c: 94:     WPUD = 0x00;
  1210  000EBC  0E00               	movlw	0
  1211  000EBE  6FA6               	movwf	166,b	;volatile
  1212                           
  1213                           ;mcc_generated_files/pin_manager.c: 95:     WPUF = 0x00;
  1214  000EC0  0E00               	movlw	0
  1215  000EC2  6FB3               	movwf	179,b	;volatile
  1216                           
  1217                           ;mcc_generated_files/pin_manager.c: 96:     WPUE = 0x00;
  1218  000EC4  0E00               	movlw	0
  1219  000EC6  6FAE               	movwf	174,b	;volatile
  1220                           
  1221                           ;mcc_generated_files/pin_manager.c: 97:     WPUB = 0x00;
  1222  000EC8  0E00               	movlw	0
  1223  000ECA  6F99               	movwf	153,b	;volatile
  1224                           
  1225                           ;mcc_generated_files/pin_manager.c: 98:     WPUG = 0x00;
  1226  000ECC  0E00               	movlw	0
  1227  000ECE  6FBB               	movwf	187,b	;volatile
  1228                           
  1229                           ;mcc_generated_files/pin_manager.c: 99:     WPUA = 0x00;
  1230  000ED0  0E00               	movlw	0
  1231  000ED2  6F91               	movwf	145,b	;volatile
  1232                           
  1233                           ;mcc_generated_files/pin_manager.c: 100:     WPUC = 0x00;
  1234  000ED4  0E00               	movlw	0
  1235  000ED6  6FA1               	movwf	161,b	;volatile
  1236                           
  1237                           ;mcc_generated_files/pin_manager.c: 101:     WPUH = 0x00;
  1238  000ED8  0E00               	movlw	0
  1239  000EDA  6FC0               	movwf	192,b	;volatile
  1240                           
  1241                           ;mcc_generated_files/pin_manager.c: 106:     ODCONE = 0x00;
  1242  000EDC  0E00               	movlw	0
  1243  000EDE  6FAD               	movwf	173,b	;volatile
  1244                           
  1245                           ;mcc_generated_files/pin_manager.c: 107:     ODCONF = 0x00;
  1246  000EE0  0E00               	movlw	0
  1247  000EE2  6FB2               	movwf	178,b	;volatile
  1248                           
  1249                           ;mcc_generated_files/pin_manager.c: 108:     ODCONA = 0x00;
  1250  000EE4  0E00               	movlw	0
  1251  000EE6  6F90               	movwf	144,b	;volatile
  1252                           
  1253                           ;mcc_generated_files/pin_manager.c: 109:     ODCONG = 0x00;
  1254  000EE8  0E00               	movlw	0
  1255  000EEA  6FBA               	movwf	186,b	;volatile
  1256                           
  1257                           ;mcc_generated_files/pin_manager.c: 110:     ODCONB = 0x00;
  1258  000EEC  0E00               	movlw	0
  1259  000EEE  6F98               	movwf	152,b	;volatile
  1260                           
  1261                           ;mcc_generated_files/pin_manager.c: 111:     ODCONH = 0x00;
  1262  000EF0  0E00               	movlw	0
  1263  000EF2  6FBF               	movwf	191,b	;volatile
  1264                           
  1265                           ;mcc_generated_files/pin_manager.c: 112:     ODCONC = 0x00;
  1266  000EF4  0E00               	movlw	0
  1267  000EF6  6FA0               	movwf	160,b	;volatile
  1268                           
  1269                           ;mcc_generated_files/pin_manager.c: 113:     ODCOND = 0x00;
  1270  000EF8  0E00               	movlw	0
  1271  000EFA  6FA5               	movwf	165,b	;volatile
  1272  000EFC                     
  1273                           ; BSR set to: 14
  1274                           ;mcc_generated_files/pin_manager.c: 118:     SLRCONA = 0xFF;
  1275  000EFC  698F               	setf	143,b	;volatile
  1276  000EFE                     
  1277                           ; BSR set to: 14
  1278                           ;mcc_generated_files/pin_manager.c: 119:     SLRCONB = 0xFF;
  1279  000EFE  6997               	setf	151,b	;volatile
  1280  000F00                     
  1281                           ; BSR set to: 14
  1282                           ;mcc_generated_files/pin_manager.c: 120:     SLRCONC = 0xFF;
  1283  000F00  699F               	setf	159,b	;volatile
  1284  000F02                     
  1285                           ; BSR set to: 14
  1286                           ;mcc_generated_files/pin_manager.c: 121:     SLRCOND = 0xFF;
  1287  000F02  69A4               	setf	164,b	;volatile
  1288  000F04                     
  1289                           ; BSR set to: 14
  1290                           ;mcc_generated_files/pin_manager.c: 122:     SLRCONE = 0xFF;
  1291  000F04  69AC               	setf	172,b	;volatile
  1292  000F06                     
  1293                           ; BSR set to: 14
  1294                           ;mcc_generated_files/pin_manager.c: 123:     SLRCONF = 0xFF;
  1295  000F06  69B1               	setf	177,b	;volatile
  1296  000F08                     
  1297                           ; BSR set to: 14
  1298                           ;mcc_generated_files/pin_manager.c: 124:     SLRCONG = 0xFF;
  1299  000F08  69B9               	setf	185,b	;volatile
  1300  000F0A                     
  1301                           ; BSR set to: 14
  1302                           ;mcc_generated_files/pin_manager.c: 125:     SLRCONH = 0xFF;
  1303  000F0A  69BE               	setf	190,b	;volatile
  1304  000F0C                     
  1305                           ; BSR set to: 14
  1306                           ;mcc_generated_files/pin_manager.c: 130:     INLVLA = 0xFF;
  1307  000F0C  698E               	setf	142,b	;volatile
  1308  000F0E                     
  1309                           ; BSR set to: 14
  1310                           ;mcc_generated_files/pin_manager.c: 131:     INLVLB = 0xFF;
  1311  000F0E  6996               	setf	150,b	;volatile
  1312  000F10                     
  1313                           ; BSR set to: 14
  1314                           ;mcc_generated_files/pin_manager.c: 132:     INLVLC = 0xFF;
  1315  000F10  699E               	setf	158,b	;volatile
  1316  000F12                     
  1317                           ; BSR set to: 14
  1318                           ;mcc_generated_files/pin_manager.c: 133:     INLVLD = 0xFF;
  1319  000F12  69A3               	setf	163,b	;volatile
  1320  000F14                     
  1321                           ; BSR set to: 14
  1322                           ;mcc_generated_files/pin_manager.c: 134:     INLVLE = 0xFF;
  1323  000F14  69AB               	setf	171,b	;volatile
  1324  000F16                     
  1325                           ; BSR set to: 14
  1326                           ;mcc_generated_files/pin_manager.c: 135:     INLVLF = 0xFF;
  1327  000F16  69B0               	setf	176,b	;volatile
  1328  000F18                     
  1329                           ; BSR set to: 14
  1330                           ;mcc_generated_files/pin_manager.c: 136:     INLVLG = 0xFF;
  1331  000F18  69B8               	setf	184,b	;volatile
  1332  000F1A                     
  1333                           ; BSR set to: 14
  1334                           ;mcc_generated_files/pin_manager.c: 137:     INLVLH = 0xFF;
  1335  000F1A  69BD               	setf	189,b	;volatile
  1336                           
  1337                           ;mcc_generated_files/pin_manager.c: 146:     T0CKIPPS = 0x04;
  1338  000F1C  0E04               	movlw	4
  1339  000F1E  010D               	movlb	13	; () banked
  1340  000F20  6FF4               	movwf	244,b	;volatile
  1341  000F22                     
  1342                           ; BSR set to: 13
  1343  000F22  0012               	return		;funcret
  1344  000F24                     __end_of_PIN_MANAGER_Initialize:
  1345                           	callstack 0
  1346                           
  1347 ;; *************** function _OSCILLATOR_Initialize *****************
  1348 ;; Defined at:
  1349 ;;		line 58 in file "mcc_generated_files/mcc.c"
  1350 ;; Parameters:    Size  Location     Type
  1351 ;;		None
  1352 ;; Auto vars:     Size  Location     Type
  1353 ;;		None
  1354 ;; Return value:  Size  Location     Type
  1355 ;;                  1    wreg      void 
  1356 ;; Registers used:
  1357 ;;		wreg, status,2
  1358 ;; Tracked objects:
  1359 ;;		On entry : 0/0
  1360 ;;		On exit  : 0/0
  1361 ;;		Unchanged: 0/0
  1362 ;; Data sizes:     COMRAM   BANK0   BANK1   BANK2   BANK3   BANK4   BANK5   BANK6   BANK7   BANK8   BANK9  BANK10  BANK1
      +1  BANK12  BANK13
  1363 ;;      Params:         0       0       0       0       0       0       0       0       0       0       0       0       
      +0       0       0
  1364 ;;      Locals:         0       0       0       0       0       0       0       0       0       0       0       0       
      +0       0       0
  1365 ;;      Temps:          0       0       0       0       0       0       0       0       0       0       0       0       
      +0       0       0
  1366 ;;      Totals:         0       0       0       0       0       0       0       0       0       0       0       0       
      +0       0       0
  1367 ;;Total ram usage:        0 bytes
  1368 ;; Hardware stack levels used:    1
  1369 ;; This function calls:
  1370 ;;		Nothing
  1371 ;; This function is called by:
  1372 ;;		_SYSTEM_Initialize
  1373 ;; This function uses a non-reentrant model
  1374 ;;
  1375                           
  1376                           	psect	text11
  1377  001050                     __ptext11:
  1378                           	callstack 0
  1379  001050                     _OSCILLATOR_Initialize:
  1380                           	callstack 29
  1381  001050                     
  1382                           ;mcc_generated_files/mcc.c: 61:     OSCCON1 = 0x62;
  1383  001050  0E62               	movlw	98
  1384  001052  010E               	movlb	14	; () banked
  1385  001054  6F43               	movwf	67,b	;volatile
  1386                           
  1387                           ;mcc_generated_files/mcc.c: 63:     OSCCON3 = 0x00;
  1388  001056  0E00               	movlw	0
  1389  001058  6F45               	movwf	69,b	;volatile
  1390                           
  1391                           ;mcc_generated_files/mcc.c: 65:     OSCEN = 0x00;
  1392  00105A  0E00               	movlw	0
  1393  00105C  6F47               	movwf	71,b	;volatile
  1394                           
  1395                           ;mcc_generated_files/mcc.c: 67:     OSCFRQ = 0x06;
  1396  00105E  0E06               	movlw	6
  1397  001060  6F49               	movwf	73,b	;volatile
  1398                           
  1399                           ;mcc_generated_files/mcc.c: 69:     OSCTUNE = 0x00;
  1400  001062  0E00               	movlw	0
  1401  001064  6F48               	movwf	72,b	;volatile
  1402  001066                     
  1403                           ; BSR set to: 14
  1404  001066  0012               	return		;funcret
  1405  001068                     __end_of_OSCILLATOR_Initialize:
  1406                           	callstack 0
  1407                           
  1408 ;; *************** function _I2C_Initialize *****************
  1409 ;; Defined at:
  1410 ;;		line 13 in file "I2C.c"
  1411 ;; Parameters:    Size  Location     Type
  1412 ;;		None
  1413 ;; Auto vars:     Size  Location     Type
  1414 ;;		None
  1415 ;; Return value:  Size  Location     Type
  1416 ;;                  1    wreg      void 
  1417 ;; Registers used:
  1418 ;;		wreg, status,2
  1419 ;; Tracked objects:
  1420 ;;		On entry : 0/0
  1421 ;;		On exit  : 0/0
  1422 ;;		Unchanged: 0/0
  1423 ;; Data sizes:     COMRAM   BANK0   BANK1   BANK2   BANK3   BANK4   BANK5   BANK6   BANK7   BANK8   BANK9  BANK10  BANK1
      +1  BANK12  BANK13
  1424 ;;      Params:         0       0       0       0       0       0       0       0       0       0       0       0       
      +0       0       0
  1425 ;;      Locals:         0       0       0       0       0       0       0       0       0       0       0       0       
      +0       0       0
  1426 ;;      Temps:          0       0       0       0       0       0       0       0       0       0       0       0       
      +0       0       0
  1427 ;;      Totals:         0       0       0       0       0       0       0       0       0       0       0       0       
      +0       0       0
  1428 ;;Total ram usage:        0 bytes
  1429 ;; Hardware stack levels used:    1
  1430 ;; This function calls:
  1431 ;;		Nothing
  1432 ;; This function is called by:
  1433 ;;		_main
  1434 ;; This function uses a non-reentrant model
  1435 ;;
  1436                           
  1437                           	psect	text12
  1438  001094                     __ptext12:
  1439                           	callstack 0
  1440  001094                     _I2C_Initialize:
  1441                           	callstack 30
  1442  001094                     
  1443                           ;I2C.c: 15:     SSP1CON1 = 0x38;
  1444  001094  0E38               	movlw	56
  1445  001096  6E95               	movwf	149,c	;volatile
  1446                           
  1447                           ;I2C.c: 16:     SSP1CON2 = 0x00;
  1448  001098  0E00               	movlw	0
  1449  00109A  6E96               	movwf	150,c	;volatile
  1450                           
  1451                           ;I2C.c: 17:     SSP1STAT = 0x40;
  1452  00109C  0E40               	movlw	64
  1453  00109E  6E94               	movwf	148,c	;volatile
  1454                           
  1455                           ;I2C.c: 18:     SSP1ADD = 0x19;
  1456  0010A0  0E19               	movlw	25
  1457  0010A2  6E92               	movwf	146,c	;volatile
  1458  0010A4                     
  1459                           ;I2C.c: 19:     SSP1CON1bits.SSPEN = 0;
  1460  0010A4  9A95               	bcf	149,5,c	;volatile
  1461  0010A6  0012               	return		;funcret
  1462  0010A8                     __end_of_I2C_Initialize:
  1463                           	callstack 0
  1464                           
  1465                           	psect	rparam
  1466  0000                     
  1467                           	psect	idloc
  1468                           
  1469                           ;Config register IDLOC0 @ 0x200000
  1470                           ;	unspecified, using default values
  1471  200000                     	org	2097152
  1472  200000  0FFF               	dw	4095
  1473                           
  1474                           ;Config register IDLOC1 @ 0x200002
  1475                           ;	unspecified, using default values
  1476  200002                     	org	2097154
  1477  200002  0FFF               	dw	4095
  1478                           
  1479                           ;Config register IDLOC2 @ 0x200004
  1480                           ;	unspecified, using default values
  1481  200004                     	org	2097156
  1482  200004  0FFF               	dw	4095
  1483                           
  1484                           ;Config register IDLOC3 @ 0x200006
  1485                           ;	unspecified, using default values
  1486  200006                     	org	2097158
  1487  200006  0FFF               	dw	4095
  1488                           
  1489                           ;Config register IDLOC4 @ 0x200008
  1490                           ;	unspecified, using default values
  1491  200008                     	org	2097160
  1492  200008  0FFF               	dw	4095
  1493                           
  1494                           ;Config register IDLOC5 @ 0x20000A
  1495                           ;	unspecified, using default values
  1496  20000A                     	org	2097162
  1497  20000A  0FFF               	dw	4095
  1498                           
  1499                           ;Config register IDLOC6 @ 0x20000C
  1500                           ;	unspecified, using default values
  1501  20000C                     	org	2097164
  1502  20000C  0FFF               	dw	4095
  1503                           
  1504                           ;Config register IDLOC7 @ 0x20000E
  1505                           ;	unspecified, using default values
  1506  20000E                     	org	2097166
  1507  20000E  0FFF               	dw	4095
  1508                           
  1509                           	psect	config
  1510                           
  1511                           ;Config register CONFIG1L @ 0x300000
  1512                           ;	External Oscillator mode Selection bits
  1513                           ;	FEXTOSC = OFF, Oscillator not enabled
  1514                           ;	Power-up default value for COSC bits
  1515                           ;	RSTOSC = HFINTOSC_1MHZ, HFINTOSC with HFFRQ = 4 MHz and CDIV = 4:1
  1516  300000                     	org	3145728
  1517  300000  EC                 	db	236
  1518                           
  1519                           ;Config register CONFIG1H @ 0x300001
  1520                           ;	Clock Out Enable bit
  1521                           ;	CLKOUTEN = OFF, CLKOUT function is disabled
  1522                           ;	Clock Switch Enable bit
  1523                           ;	CSWEN = ON, Writing to NOSC and NDIV is allowed
  1524                           ;	Fail-Safe Clock Monitor Enable bit
  1525                           ;	FCMEN = ON, Fail-Safe Clock Monitor enabled
  1526  300001                     	org	3145729
  1527  300001  FF                 	db	255
  1528                           
  1529                           ;Config register CONFIG2L @ 0x300002
  1530                           ;	Master Clear Enable bit
  1531                           ;	MCLRE = EXTMCLR, If LVP = 0, MCLR pin is MCLR; If LVP = 1, RG5 pin function is MCLR
  1532                           ;	Power-up Timer Enable bit
  1533                           ;	PWRTE = OFF, Power up timer disabled
  1534                           ;	Low-power BOR enable bit
  1535                           ;	LPBOREN = OFF, ULPBOR disabled
  1536                           ;	Brown-out Reset Enable bits
  1537                           ;	BOREN = SBORDIS, Brown-out Reset enabled , SBOREN bit is ignored
  1538  300002                     	org	3145730
  1539  300002  FF                 	db	255
  1540                           
  1541                           ;Config register CONFIG2H @ 0x300003
  1542                           ;	Brown Out Reset Voltage selection bits
  1543                           ;	BORV = VBOR_2P45, Brown-out Reset Voltage (VBOR) set to 2.45V
  1544                           ;	ZCD Disable bit
  1545                           ;	ZCD = OFF, ZCD disabled. ZCD can be enabled by setting the ZCDSEN bit of ZCDCON
  1546                           ;	PPSLOCK bit One-Way Set Enable bit
  1547                           ;	PPS1WAY = ON, PPSLOCK bit can be cleared and set only once; PPS registers remain locke
      +                          d after one clear/set cycle
  1548                           ;	Stack Full/Underflow Reset Enable bit
  1549                           ;	STVREN = ON, Stack full/underflow will cause Reset
  1550                           ;	Debugger Enable bit
  1551                           ;	DEBUG = OFF, Background debugger disabled
  1552                           ;	Extended Instruction Set Enable bit
  1553                           ;	XINST = OFF, Extended Instruction Set and Indexed Addressing Mode disabled
  1554  300003                     	org	3145731
  1555  300003  FF                 	db	255
  1556                           
  1557                           ;Config register CONFIG3L @ 0x300004
  1558                           ;	WDT Period Select bits
  1559                           ;	WDTCPS = WDTCPS_31, Divider ratio 1:65536; software control of WDTPS
  1560                           ;	WDT operating mode
  1561                           ;	WDTE = OFF, WDT Disabled
  1562  300004                     	org	3145732
  1563  300004  9F                 	db	159
  1564                           
  1565                           ;Config register CONFIG3H @ 0x300005
  1566                           ;	WDT Window Select bits
  1567                           ;	WDTCWS = WDTCWS_7, window always open (100%); software control; keyed access not requi
      +                          red
  1568                           ;	WDT input clock selector
  1569                           ;	WDTCCS = SC, Software Control
  1570  300005                     	org	3145733
  1571  300005  FF                 	db	255
  1572                           
  1573                           ;Config register CONFIG4L @ 0x300006
  1574                           ;	Write Protection Block 0
  1575                           ;	WRT0 = OFF, Block 0 (000800-003FFFh) not write-protected
  1576                           ;	Write Protection Block 1
  1577                           ;	WRT1 = OFF, Block 1 (004000-007FFFh) not write-protected
  1578                           ;	Write Protection Block 2
  1579                           ;	WRT2 = OFF, Block 2 (008000-00BFFFh) not write-protected
  1580                           ;	Write Protection Block 3
  1581                           ;	WRT3 = OFF, Block 3 (00C000-00FFFFh) not write-protected
  1582                           ;	Write Protection Block 3
  1583                           ;	WRT4 = OFF, Block 4 (010000-013FFFh) not write-protected
  1584                           ;	Write Protection Block 3
  1585                           ;	WRT5 = OFF, Block 5 (014000-017FFFh) not write-protected
  1586                           ;	Write Protection Block 3
  1587                           ;	WRT6 = OFF, Block 6 (018000-01BFFFh) not write-protected
  1588                           ;	Write Protection Block 3
  1589                           ;	WRT7 = OFF, Block 7 (01C000-01FFFFh) not write-protected
  1590  300006                     	org	3145734
  1591  300006  FF                 	db	255
  1592                           
  1593                           ;Config register CONFIG4H @ 0x300007
  1594                           ;	Configuration Register Write Protection bit
  1595                           ;	WRTC = OFF, Configuration registers (300000-30000Bh) not write-protected
  1596                           ;	Boot Block Write Protection bit
  1597                           ;	WRTB = OFF, Boot Block (000000-0007FFh) not write-protected
  1598                           ;	Data EEPROM Write Protection bit
  1599                           ;	WRTD = OFF, Data EEPROM not write-protected
  1600                           ;	Scanner Enable bit
  1601                           ;	SCANE = ON, Scanner module is available for use, SCANMD bit can control the module
  1602                           ;	Low Voltage Programming Enable bit
  1603                           ;	LVP = ON, Low voltage programming enabled. MCLR/VPP pin function is MCLR. MCLRE config
      +                          uration bit is ignored
  1604  300007                     	org	3145735
  1605  300007  FF                 	db	255
  1606                           
  1607                           ;Config register CONFIG5L @ 0x300008
  1608                           ;	UserNVM Program Memory Code Protection bit
  1609                           ;	CP = OFF, UserNVM code protection disabled
  1610                           ;	DataNVM Memory Code Protection bit
  1611                           ;	CPD = OFF, DataNVM code protection disabled
  1612  300008                     	org	3145736
  1613  300008  FF                 	db	255
  1614                           
  1615                           ;Config register CONFIG5H @ 0x300009
  1616                           ;	unspecified, using default values
  1617  300009                     	org	3145737
  1618  300009  FF                 	db	255
  1619                           
  1620                           ;Config register CONFIG6L @ 0x30000A
  1621                           ;	Table Read Protection Block 0
  1622                           ;	EBTR0 = OFF, Block 0 (000800-003FFFh) not protected from table reads executed in other
      +                           blocks
  1623                           ;	Table Read Protection Block 1
  1624                           ;	EBTR1 = OFF, Block 1 (004000-007FFFh) not protected from table reads executed in other
      +                           blocks
  1625                           ;	Table Read Protection Block 2
  1626                           ;	EBTR2 = OFF, Block 2 (008000-00BFFFh) not protected from table reads executed in other
      +                           blocks
  1627                           ;	Table Read Protection Block 3
  1628                           ;	EBTR3 = OFF, Block 3 (00C000-00FFFFh) not protected from table reads executed in other
      +                           blocks
  1629                           ;	Table Read Protection Block 4
  1630                           ;	EBTR4 = OFF, Block 4 (010000-013FFFh) not protected from table reads executed in other
      +                           blocks
  1631                           ;	Table Read Protection Block 5
  1632                           ;	EBTR5 = OFF, Block 5 (014000-017FFFh) not protected from table reads executed in other
      +                           blocks
  1633                           ;	Table Read Protection Block 6
  1634                           ;	EBTR6 = OFF, Block 6 (018000-01BFFFh) not protected from table reads executed in other
      +                           blocks
  1635                           ;	Table Read Protection Block 7
  1636                           ;	EBTR7 = OFF, Block 7 (01C000-01FFFFh) not protected from table reads executed in other
      +                           blocks
  1637  30000A                     	org	3145738
  1638  30000A  FF                 	db	255
  1639                           
  1640                           ;Config register CONFIG6H @ 0x30000B
  1641                           ;	Boot Block Table Read Protection bit
  1642                           ;	EBTRB = OFF, Boot Block (000000-0007FFh) not protected from table reads executed in ot
      +                          her blocks
  1643  30000B                     	org	3145739
  1644  30000B  FF                 	db	255
  1645                           tosu	equ	0xFFF
  1646                           tosh	equ	0xFFE
  1647                           tosl	equ	0xFFD
  1648                           stkptr	equ	0xFFC
  1649                           pclatu	equ	0xFFB
  1650                           pclath	equ	0xFFA
  1651                           pcl	equ	0xFF9
  1652                           tblptru	equ	0xFF8
  1653                           tblptrh	equ	0xFF7
  1654                           tblptrl	equ	0xFF6
  1655                           tablat	equ	0xFF5
  1656                           prodh	equ	0xFF4
  1657                           prodl	equ	0xFF3
  1658                           indf0	equ	0xFEF
  1659                           postinc0	equ	0xFEE
  1660                           postdec0	equ	0xFED
  1661                           preinc0	equ	0xFEC
  1662                           plusw0	equ	0xFEB
  1663                           fsr0h	equ	0xFEA
  1664                           fsr0l	equ	0xFE9
  1665                           wreg	equ	0xFE8
  1666                           indf1	equ	0xFE7
  1667                           postinc1	equ	0xFE6
  1668                           postdec1	equ	0xFE5
  1669                           preinc1	equ	0xFE4
  1670                           plusw1	equ	0xFE3
  1671                           fsr1h	equ	0xFE2
  1672                           fsr1l	equ	0xFE1
  1673                           bsr	equ	0xFE0
  1674                           indf2	equ	0xFDF
  1675                           postinc2	equ	0xFDE
  1676                           postdec2	equ	0xFDD
  1677                           preinc2	equ	0xFDC
  1678                           plusw2	equ	0xFDB
  1679                           fsr2h	equ	0xFDA
  1680                           fsr2l	equ	0xFD9
  1681                           status	equ	0xFD8

Data Sizes:
    Strings     1
    Constant    112
    Data        4
    BSS         198
    Persistent  0
    Stack       0

Auto Spaces:
    Space          Size  Autos    Used
    COMRAM           95      5      93
    BANK0           160      0     114
    BANK1           256      0       0
    BANK2           256      0       0
    BANK3           256      0       0
    BANK4           256      0       0
    BANK5           256      0       0
    BANK6           256      0       0
    BANK7           256      0       0
    BANK8           256      0       0
    BANK9           256      0       0
    BANK10          256      0       0
    BANK11          256      0       0
    BANK12          256      0       0
    BANK13          234      0       0

Pointer List with Targets:

    returnStop$0	PTR void  size(2) Largest target is 0
		 -> NULL(NULL[0]), 

    returnReset$0	PTR void  size(2) Largest target is 0
		 -> NULL(NULL[0]), 

    ?___localtime_r.__tm_zone	PTR const unsigned char  size(2) Largest target is 0

    ?_localtime.__tm_zone	PTR const unsigned char  size(2) Largest target is 0

    S139$11$0	PTR void  size(2) Largest target is 0
		 -> NULL(NULL[0]), 

    __tm_to_secs@tm.__tm_zone	PTR const unsigned char  size(2) Largest target is 0

    mktime@tm.__tm_zone	PTR const unsigned char  size(2) Largest target is 0

    new.__tm_zone	PTR const unsigned char  size(2) Largest target is 0

    sp____tm_to_tzname	PTR const unsigned char  size(2) Largest target is 1
		 -> STR_1(CODE[1]), 

    abbrevs_end	PTR const unsigned char  size(2) Largest target is 0
		 -> NULL(NULL[0]), 

    __tm_to_tzname@tm.__tm_zone	PTR const unsigned char  size(2) Largest target is 0

    abbrevs	PTR const unsigned char  size(2) Largest target is 0
		 -> NULL(NULL[0]), 

    types	PTR const unsigned char  size(2) Largest target is 0
		 -> NULL(NULL[0]), 

    index	PTR const unsigned char  size(2) Largest target is 0
		 -> NULL(NULL[0]), 

    zi	PTR const unsigned char  size(2) Largest target is 0
		 -> NULL(NULL[0]), 

    trans	PTR const unsigned char  size(2) Largest target is 0
		 -> NULL(NULL[0]), 

    old_tz	PTR unsigned char  size(2) Largest target is 32
		 -> old_tz_buf(BANK0[32]), 

    __tzname	PTR unsigned char [2] size(2) Largest target is 7
		 -> dst_name(BANK0[7]), std_name(BANK0[7]), NULL(NULL[0]), 

    __secs_to_tm@tm.__tm_zone	PTR const unsigned char  size(2) Largest target is 0

    sp____localtime_r.__tm_zone	PTR const unsigned char  size(2) Largest target is 0

    __localtime_r@tm.__tm_zone	PTR const unsigned char  size(2) Largest target is 0

    sp__localtime.__tm_zone	PTR const unsigned char  size(2) Largest target is 0

    sp____localtime_r	PTR struct tm size(2) Largest target is 25
		 -> localtime@tm(BANK0[24]), NULL(NULL[0]), 

    F191.__tm_zone	PTR const unsigned char  size(2) Largest target is 0

    fsmStateTable	const PTR FTN()enum E14543[16] size(3) Largest target is 1
		 -> do_I2C_TX_EMPTY(), do_I2C_RX(), do_I2C_TX(), do_I2C_DO_ADDRESS_NACK(), 
		 -> do_I2C_DO_NACK_RESTART(), do_I2C_DO_NACK_STOP(), do_I2C_DO_ACK(), do_I2C_RCEN(), 
		 -> do_I2C_SEND_ADR_WRITE(), do_I2C_SEND_ADR_READ(), do_I2C_SEND_STOP(), do_I2C_SEND_RESTART(), 
		 -> do_I2C_SEND_RESTART_WRITE(), do_I2C_SEND_RESTART_READ(), do_I2C_IDLE(), do_I2C_RESET(), 

    i2c1_driver_i2cISR	PTR FTN()void  size(3) Largest target is 1
		 -> Absolute function(), i2c_ISR(), 

    i2c1_driver_busCollisionISR	PTR FTN()void  size(3) Largest target is 1
		 -> Absolute function(), i2c_busCollisionISR(), 

    tm_t.__tm_zone	PTR const unsigned char  size(2) Largest target is 0

    tm_t.__tm_zone	PTR const unsigned char  size(2) Largest target is 0

    tm_t.__tm_zone	PTR const unsigned char  size(2) Largest target is 0

    S875tm$__tm_zone	PTR const unsigned char  size(2) Largest target is 0

    rtc6_SetTime@tm_t.__tm_zone	PTR const unsigned char  size(2) Largest target is 0

    sp__localtime	PTR struct tm size(2) Largest target is 25
		 -> localtime@tm(BANK0[24]), NULL(NULL[0]), 

    sp__memset	PTR void  size(2) Largest target is 25
		 -> localtime@tm(BANK0[24]), rtc6_GetTime@tm_t(COMRAM[24]), NULL(NULL[0]), 

    S139$callbackPayload	PTR void [6] size(2) Largest target is 0
		 -> NULL(NULL[0]), 

    i2c_status.callbackPayload	PTR void [6] size(2) Largest target is 0
		 -> NULL(NULL[0]), 

    S139$callbackTable	PTR FTN(PTR void ,)enum E14270[6] size(3) Largest target is 1
		 -> returnReset@I2C_Master$F1543(), returnStop@I2C_Master$F1538(), returnReset(), returnStop(), 

    i2c_status.callbackTable	PTR FTN(PTR void ,)enum E14270[6] size(3) Largest target is 1
		 -> returnReset@I2C_Master$F1543(), returnStop@I2C_Master$F1538(), returnReset(), returnStop(), 

    S139$data_ptr	PTR unsigned char  size(2) Largest target is 0

    i2c_status.data_ptr	PTR unsigned char  size(2) Largest target is 0


Critical Paths under _main in COMRAM

    _main->_rtc6_Initialize
    _rtc6_Initialize->_rtcc_write

Critical Paths under _main in BANK0

    None.

Critical Paths under _main in BANK1

    None.

Critical Paths under _main in BANK2

    None.

Critical Paths under _main in BANK3

    None.

Critical Paths under _main in BANK4

    None.

Critical Paths under _main in BANK5

    None.

Critical Paths under _main in BANK6

    None.

Critical Paths under _main in BANK7

    None.

Critical Paths under _main in BANK8

    None.

Critical Paths under _main in BANK9

    None.

Critical Paths under _main in BANK10

    None.

Critical Paths under _main in BANK11

    None.

Critical Paths under _main in BANK12

    None.

Critical Paths under _main in BANK13

    None.

Call Graph Tables:

 ---------------------------------------------------------------------------------
 (Depth) Function   	        Calls       Base Space   Used Autos Params    Refs
 ---------------------------------------------------------------------------------
 (0) _main                                                 1     1      0    1545
                                              4 COMRAM     1     1      0
                     _I2C_Initialize
                  _SYSTEM_Initialize
            _TMR0_HasOverflowOccured
                    _TMR0_StartTimer
                     _TMR0_StopTimer
                    _rtc6_Initialize
 ---------------------------------------------------------------------------------
 (1) _rtc6_Initialize                                      2     2      0    1545
                                              2 COMRAM     2     2      0
                          _rtcc_read
                         _rtcc_write
 ---------------------------------------------------------------------------------
 (2) _rtcc_write                                           3     2      1    1520
                                              0 COMRAM     2     1      1
 ---------------------------------------------------------------------------------
 (2) _rtcc_read                                            1     1      0       0
 ---------------------------------------------------------------------------------
 (1) _TMR0_StopTimer                                       0     0      0       0
 ---------------------------------------------------------------------------------
 (1) _TMR0_StartTimer                                      0     0      0       0
 ---------------------------------------------------------------------------------
 (1) _TMR0_HasOverflowOccured                              0     0      0       0
 ---------------------------------------------------------------------------------
 (1) _SYSTEM_Initialize                                    0     0      0       0
              _OSCILLATOR_Initialize
             _PIN_MANAGER_Initialize
                     _PMD_Initialize
                    _TMR0_Initialize
 ---------------------------------------------------------------------------------
 (2) _TMR0_Initialize                                      0     0      0       0
 ---------------------------------------------------------------------------------
 (2) _PMD_Initialize                                       0     0      0       0
 ---------------------------------------------------------------------------------
 (2) _PIN_MANAGER_Initialize                               0     0      0       0
 ---------------------------------------------------------------------------------
 (2) _OSCILLATOR_Initialize                                0     0      0       0
 ---------------------------------------------------------------------------------
 (1) _I2C_Initialize                                       0     0      0       0
 ---------------------------------------------------------------------------------
 Estimated maximum stack depth 2
 ---------------------------------------------------------------------------------

 Call Graph Graphs:

 _main (ROOT)
   _I2C_Initialize
   _SYSTEM_Initialize
     _OSCILLATOR_Initialize
     _PIN_MANAGER_Initialize
     _PMD_Initialize
     _TMR0_Initialize
   _TMR0_HasOverflowOccured
   _TMR0_StartTimer
   _TMR0_StopTimer
   _rtc6_Initialize
     _rtcc_read
     _rtcc_write

 Address spaces:
Name               Size   Autos  Total    Cost      Usage
BIGRAM             DE9      0       0      33        0.0%
EEDATA             400      0       0       0        0.0%
BITBANK12          100      0       0      29        0.0%
BANK12             100      0       0      30        0.0%
BITBANK11          100      0       0      27        0.0%
BANK11             100      0       0      28        0.0%
BITBANK10          100      0       0      25        0.0%
BANK10             100      0       0      26        0.0%
BITBANK9           100      0       0      23        0.0%
BANK9              100      0       0      24        0.0%
BITBANK8           100      0       0      21        0.0%
BANK8              100      0       0      22        0.0%
BITBANK7           100      0       0      19        0.0%
BANK7              100      0       0      20        0.0%
BITBANK6           100      0       0      17        0.0%
BANK6              100      0       0      18        0.0%
BITBANK5           100      0       0      15        0.0%
BANK5              100      0       0      16        0.0%
BITBANK4           100      0       0      13        0.0%
BANK4              100      0       0      14        0.0%
BITBANK3           100      0       0      11        0.0%
BANK3              100      0       0      12        0.0%
BITBANK2           100      0       0       9        0.0%
BANK2              100      0       0      10        0.0%
BITBANK1           100      0       0       6        0.0%
BANK1              100      0       0       7        0.0%
BITBANK13           EA      0       0      31        0.0%
BANK13              EA      0       0      32        0.0%
BITBANK0            A0      0       0       4        0.0%
BANK0               A0      0      72       5       71.2%
BITCOMRAM           5F      0       0       0        0.0%
COMRAM              5F      5      5D       1       97.9%
BITSFR_3             0      0       0     200        0.0%
SFR_3                0      0       0     200        0.0%
BITSFR_2             0      0       0     200        0.0%
SFR_2                0      0       0     200        0.0%
BITSFR_1             0      0       0     200        0.0%
SFR_1                0      0       0     200        0.0%
BITSFR               0      0       0     200        0.0%
SFR                  0      0       0     200        0.0%
STACK                0      0       0       2        0.0%
NULL                 0      0       0       0        0.0%
ABS                  0      0      CF       8        0.0%
DATA                 0      0      CF       3        0.0%
CODE                 0      0       0       0        0.0%


Microchip Technology PIC18 Macro Assembler V2.31 build 20201012212115 
Symbol Table                                                                                   Sat Feb 27 21:50:04 2021

           __end_of_TMR0_HasOverflowOccured 107E                                          l33 10B8  
                                        l36 1066                                          l39 104E  
                                        u50 107A                                          u51 1074  
                                        u56 107C                                          _r0 00BA  
                                        _r1 00B0                                          _zi 004D  
                       _do_I2C_SEND_RESTART 000000                               rtcc_read@addr 0055  
                                       l202 10D4                                         l205 10D0  
                                       l152 0F22                                         l217 107C  
                                       l315 10D6                                         l260 10A6  
                                       l324 0F9E                                         l318 10C8  
                                       l199 1092                     __size_of_PMD_Initialize 001C  
                                       wreg 000FE8                                        l3010 0F58  
                                      l3002 0F24                                        l3020 0F90  
                                      l3012 0F62                                        l3004 0F28  
                                      l3014 0F74                                        l3006 0F3C  
                                      l3016 0F7C                                        l3008 0F48  
                                      l3018 0F80                                        l3320 0FB0  
                                      l3322 0FC4                                        l3314 0FA0  
                                      l1740 0E96                                        l3324 0FC8  
                                      l3316 0FA8                                        l1750 0EB2  
                                      l1742 0E98                                        l1734 1034  
                                      l3326 0FCC                                        l3318 0FAC  
                                      l1760 0F00                                        l1752 0EB4  
                                      l1744 0E9E                                        l1736 0E74  
                                      l2640 10BA                                        l1770 0F0A  
                                      l1762 0F02                                        l1754 0EB6  
                                      l1746 0EA4                                        l1738 0E94  
                                      l1860 10A4                                        l1780 0F14  
                                      l1772 0F0C                                        l1764 0F04  
                                      l1756 0EFC                                        l1748 0EB0  
                                      l1782 0F16                                        l1774 0F0E  
                                      l1766 0F06                                        l1758 0EFE  
                                      l1790 107E                                        l1784 0F18  
                                      l1776 0F10                                        l1768 0F08  
                                      l1792 108A                                        l1856 10A8  
                                      l1858 1094                                        l1786 0F1A  
                                      l1778 0F12                                        l1882 10D2  
                                      l1788 1050                                        l1884 1068  
                                      l1888 10CE                                        STR_1 0E71  
                                      u1040 0F90                                        u1041 0F8C  
                                      _LATA 000F79                                        _LATB 000F7A  
                                      _LATC 000F7B                                        u1440 0FC4  
                                      _LATD 000F7C                                        u1441 0FC0  
                                      _LATE 000F7D                                        u1450 0FDC  
                                      _LATF 000F7E                                        u1451 0FD6  
                                      _LATG 000F7F                                        _LATH 000F80  
                                      u1456 0FDE                                        u1557 10C0  
                                      _PMD0 000E4C                                        _PMD1 000E4D  
                                      _PMD2 000E4E                                        _PMD3 000E4F  
                                      _PMD4 000E50                                        _PMD5 000E51  
                                      _WPUA 000E91                                        _WPUB 000E99  
                                      _WPUC 000EA1                                        _WPUD 000EA6  
                                      _WPUE 000EAE                                        _WPUF 000EB3  
                                      _WPUG 000EBB                                        _WPUH 000EC0  
                                      _main 0FA0                                        _lock 0074  
                           _TMR0_StartTimer 10D2                                        fsr1l 000FE1  
                                      start 0000                                ___param_bank 000000  
                   __end_of_TMR0_Initialize 1094                                _do_I2C_RESET 000000  
            __size_of_OSCILLATOR_Initialize 0018               __end_of_OSCILLATOR_Initialize 1068  
                                     ?_main 0055                                       _OSCEN 000E47  
                                     _TMR0H 000FD4                                       _TMR0L 000FD3  
                                     _TRISA 000F81                                       _TRISB 000F82  
                                     _TRISC 000F83                                       _TRISD 000F84  
                                     _TRISE 000F85                                       _TRISF 000F86  
                                     _TRISG 000F87                                       _TRISH 000F88  
                                     ___gmt 0E6D                                       _index 0049  
                                     _errno 0053                                       _trans 004B  
                                     _types 0047                                       tablat 000FF5  
                                     status 000FD8                               _fsmStateTable 0E31  
                           __initialization 0FF6                                  _i2c_status 0001  
                              __end_of_main 0FF6                _returnReset@I2C_Master$F1543 000000  
                             _do_I2C_DO_ACK 000000                                      ??_main 0059  
                             __activetblptr 000003                     __end_of_TMR0_StartTimer 10D6  
                                    _ANSELA 000E92                                      _ANSELB 000E9A  
                                    _ANSELD 000EA7                                      _ANSELE 000EAF  
                                    _ANSELF 000EB4                                      _ANSELG 000EBC  
                                    _T0CON0 000FD5                                      _T0CON1 000FD6  
                            rtcc_write@addr 0055                              rtcc_write@data 0055  
                                    _ODCONA 000E90                                      _ODCONB 000E98  
                                    _ODCONC 000EA0                                      _ODCOND 000EA5  
                                    _ODCONE 000EAD                                      _ODCONF 000EB2  
                                    _ODCONG 000EBA                                      _ODCONH 000EBF  
                                    _INLVLA 000E8E                                      _INLVLB 000E96  
                                    _INLVLC 000E9E                                      _INLVLD 000EA3  
                                    _INLVLE 000EAB                                      _INLVLF 000EB0  
                                    _INLVLG 000EB8                                      _INLVLH 000EBD  
                                    _OSCFRQ 000E49            __size_of_TMR0_HasOverflowOccured 0016  
                                    _SSP1IF 0071B0                          rtc6_Initialize@reg 0058  
                          ?_TMR0_Initialize 0055                                      clear_0 101C  
                                    clear_1 1028                                      _old_tz 005C  
                   __size_of_I2C_Initialize 0014                                      _tzname 006E  
                            _PMD_Initialize 1034                                __pdataCOMRAM 005A  
                              __mediumconst 0000                                      tblptrh 000FF7  
                                    tblptrl 000FF6                                      tblptru 000FF8  
                               localtime@tm 0098                           _SYSTEM_Initialize 10A8  
                                ___daylight 0051                                  __accesstop 0060  
                   __end_of__initialization 102E                 _returnStop@I2C_Master$F1538 000000  
                          _do_I2C_SEND_STOP 000000                          ?_SYSTEM_Initialize 0055  
                             ___rparam_used 000001                              __pcstackCOMRAM 0055  
                             __end_of___gmt 0E71                         ??_SYSTEM_Initialize 0055  
                    __end_of_PMD_Initialize 1050                                  ___timezone 0037  
                          ?_TMR0_StartTimer 0055                      _do_I2C_DO_NACK_RESTART 000000  
                 __end_of_SYSTEM_Initialize 10BA                                  __pbssBANK0 0060  
                  __size_of_rtc6_Initialize 007C                     __size_of_TMR0_StopTimer 0004  
                           ?_PMD_Initialize 0055                          __size_of_rtcc_read 0002  
                                   _OSCCON1 000E43                                     _OSCCON3 000E45  
                                   _OSCTUNE 000E48                                     _SSP1ADD 000F92  
                                   _SLRCONA 000E8F                                     _SLRCONB 000E97  
                                   _SLRCONC 000E9F                                     _SLRCOND 000EA4  
                                   _SLRCONE 000EAC                                     _SLRCONF 000EB1  
                                   _SLRCONG 000EB9                                     _SLRCONH 000EBE  
                                   _SSP1BUF 000F91                                     _SSP1MSK 000F93  
                   _TMR0_HasOverflowOccured 1068                          _i2c1_driver_i2cISR 003B  
                                   _i2c_ISR 000000                                     __Hparam 0000  
                                   __Lparam 0000                                     _abbrevs 0045  
                              __psmallconst 0E00                                     __pcinit 0FF6  
                            _I2C_Initialize 1094                                     __ramtop 0E00  
                                   __ptext0 0FA0                                     __ptext1 0F24  
                                   __ptext2 10BA                                     __ptext3 10D6  
                                   __ptext4 10CE                                     __ptext5 10D2  
                                   __ptext6 1068                                     __ptext7 10A8  
                                   __ptext8 107E                                     __ptext9 1034  
                                   _dst_off 002B                       _OSCILLATOR_Initialize 1050  
                  ??_PIN_MANAGER_Initialize 0055                                  _old_tz_buf 0078  
                  _do_I2C_SEND_RESTART_READ 000000                  __size_of_SYSTEM_Initialize 0012  
                      end_of_initialization 102E                           __end_of_rtcc_read 10D8  
                                   postdec1 000FE5                                     postinc0 000FEE  
                 _do_I2C_SEND_RESTART_WRITE 000000                      __end_of_I2C_Initialize 10A8  
                         ??_rtc6_Initialize 0057                                  _rtcc_write 10BA  
                 ??_TMR0_HasOverflowOccured 0055                              _TMR0_StopTimer 10CE  
                               _do_I2C_IDLE 000000                                 _do_I2C_RCEN 000000  
                           ?_I2C_Initialize 0055                               __pidataCOMRAM 10CA  
                    ?_OSCILLATOR_Initialize 0055  __end_of___month_to_secs@secs_through_month 0E31  
        ___month_to_secs@secs_through_month 0E01                         start_initialization 0FF6  
                       _i2c_busCollisionISR 000000                    __size_of_TMR0_Initialize 0016  
           __size_of_PIN_MANAGER_Initialize 00B0                                 _abbrevs_end 0043  
                    __end_of_TMR0_StopTimer 10D2                            ??_PMD_Initialize 0055  
                               ?_rtcc_write 0055                                 __pbssCOMRAM 0001  
                                 _do_I2C_RX 000000                                   _do_I2C_TX 000000  
                           _do_I2C_TX_EMPTY 000000                    __size_of_TMR0_StartTimer 0004  
                           ?_TMR0_StopTimer 0055                       __end_of_fsmStateTable 0E61  
                    _PIN_MANAGER_Initialize 0E74                 _i2c1_driver_busCollisionISR 003E  
                               __smallconst 0E00                                    _T0CKIPPS 000DF4  
                         ??_TMR0_Initialize 0055                                    _LATDbits 000F7C  
                           _rtc6_Initialize 0F24                                    _PIE3bits 000E2C  
                       __size_of_rtcc_write 0010                                    _PIR0bits 000E33  
                                  _PIR3bits 000E36                                    _SSP1CON1 000F95  
                                  _SSP1CON2 000F96          __end_of___secs_to_tm@days_in_month 0E6D  
                ___secs_to_tm@days_in_month 0E61                                   _rtcc_read 10D6  
                                  _SSP1STAT 000F94                                   copy_data0 100A  
                       _do_I2C_DO_NACK_STOP 000000                            ??_I2C_Initialize 0055  
                                  __Hrparam 0000                                    __Lrparam 0000  
                   ??_OSCILLATOR_Initialize 0055                                  ?_rtcc_read 0055  
                         ??_TMR0_StartTimer 0055                                    ___tzname 0033  
                                _T0CON0bits 000FD5                                    _dateTime 0060  
                                  _daylight 004F                                    __ptext10 0E74  
                                  __ptext11 1050                                    __ptext12 1094  
                              _SSP1CON1bits 000F95                                _SSP1CON2bits 000F96  
                   __end_of_rtc6_Initialize 0FA0                                    _map_size 0041  
                                  _dst_name 00C4                               __size_of_main 0056  
                                  _timezone 002F                                    _std_name 00CB  
                               _old_tz_size 005A                                _SSP1STATbits 000F94  
                              ??_rtcc_write 0056                    ?_TMR0_HasOverflowOccured 0055  
                    _do_I2C_DO_ADDRESS_NACK 000000                            ??_TMR0_StopTimer 0055  
                   ?_PIN_MANAGER_Initialize 0055                          __end_of_rtcc_write 10CA  
                               ??_rtcc_read 0055                             _TMR0_Initialize 107E  
                          ?_rtc6_Initialize 0055              __end_of_PIN_MANAGER_Initialize 0F24  
                     _do_I2C_SEND_ADR_WRITE 000000                        _do_I2C_SEND_ADR_READ 000000  
