

Microchip MPLAB XC8 Assembler V2.31 build 20201012212115 
                                                                                               Thu Mar 11 23:01:41 2021

Microchip MPLAB XC8 C Compiler v2.31 (Free license) build 20201012212115 Og1 
     1                           	processor	18F67K40
     2                           	fnconf	rparam,??,?,0
     3                           	pagewidth 120
     4                           	opt	flic
     5                           	psect	idataCOMRAM,global,class=CODE,delta=1,noexec
     6                           	psect	smallconst,global,reloc=2,class=SMALLCONST,delta=1,noexec
     7                           	psect	cinit,global,reloc=2,class=CODE,delta=1
     8                           	psect	bssCOMRAM,global,class=COMRAM,space=1,delta=1,lowdata,noexec
     9                           	psect	dataCOMRAM,global,class=COMRAM,space=1,delta=1,lowdata,noexec
    10                           	psect	bssBANK0,global,class=BANK0,space=1,delta=1,lowdata,noexec
    11                           	psect	cstackCOMRAM,global,class=COMRAM,space=1,delta=1,lowdata,noexec
    12                           	psect	text0,global,reloc=2,class=CODE,delta=1
    13                           	psect	text1,global,reloc=2,class=CODE,delta=1
    14                           	psect	text2,global,reloc=2,class=CODE,delta=1
    15                           	psect	text3,global,reloc=2,class=CODE,delta=1
    16                           	psect	text4,global,reloc=2,class=CODE,delta=1
    17                           	psect	text5,global,reloc=2,class=CODE,delta=1
    18                           	psect	text6,global,reloc=2,class=CODE,delta=1
    19                           	psect	text7,global,reloc=2,class=CODE,delta=1
    20                           	psect	text8,global,reloc=2,class=CODE,delta=1
    21                           	psect	text9,global,reloc=2,class=CODE,delta=1
    22                           	psect	text10,global,reloc=2,class=CODE,delta=1
    23                           	psect	text11,global,reloc=2,class=CODE,delta=1
    24                           	psect	text12,global,reloc=2,class=CODE,delta=1,inline
    25                           	psect	text13,global,reloc=2,class=CODE,delta=1
    26                           	psect	text14,global,reloc=2,class=CODE,delta=1
    27                           	psect	text15,global,reloc=2,class=CODE,delta=1
    28                           	psect	text16,global,reloc=2,class=CODE,delta=1,inline
    29                           	psect	text17,global,reloc=2,class=CODE,delta=1,inline
    30                           	psect	text18,global,reloc=2,class=CODE,delta=1
    31                           	psect	text19,global,reloc=2,class=CODE,delta=1
    32                           	psect	text20,global,reloc=2,class=CODE,delta=1
    33                           	psect	text21,global,reloc=2,class=CODE,delta=1
    34                           	psect	text22,global,reloc=2,class=CODE,delta=1
    35                           	psect	text23,global,reloc=2,class=CODE,delta=1
    36                           	psect	text24,global,reloc=2,class=CODE,delta=1
    37                           	psect	text25,global,reloc=2,class=CODE,delta=1
    38                           	psect	text26,global,reloc=2,class=CODE,delta=1
    39                           	psect	text27,global,reloc=2,class=CODE,delta=1
    40                           	psect	text28,global,reloc=2,class=CODE,delta=1
    41                           	psect	text29,global,reloc=2,class=CODE,delta=1
    42                           	psect	text30,global,reloc=2,class=CODE,delta=1
    43                           	psect	text31,global,reloc=2,class=CODE,delta=1
    44                           	psect	text32,global,reloc=2,class=CODE,delta=1
    45                           	psect	text33,global,reloc=2,class=CODE,delta=1
    46                           	psect	text34,global,reloc=2,class=CODE,delta=1,inline
    47                           	psect	text35,global,reloc=2,class=CODE,delta=1,inline
    48                           	psect	text36,global,reloc=2,class=CODE,delta=1,inline
    49                           	psect	text37,global,reloc=2,class=CODE,delta=1,inline
    50                           	psect	text38,global,reloc=2,class=CODE,delta=1,inline
    51                           	psect	text39,global,reloc=2,class=CODE,delta=1,inline
    52                           	psect	text40,global,reloc=2,class=CODE,delta=1,inline
    53                           	psect	text41,global,reloc=2,class=CODE,delta=1
    54                           	psect	text42,global,reloc=2,class=CODE,delta=1
    55                           	psect	text43,global,reloc=2,class=CODE,delta=1
    56                           	psect	text44,global,reloc=2,class=CODE,delta=1
    57                           	psect	text45,global,reloc=2,class=CODE,delta=1
    58                           	psect	text46,global,reloc=2,class=CODE,delta=1
    59                           	psect	text47,global,reloc=2,class=CODE,delta=1
    60                           	psect	text48,global,reloc=2,class=CODE,delta=1
    61                           	psect	text49,global,reloc=2,class=CODE,delta=1
    62                           	psect	text50,global,reloc=2,class=CODE,delta=1
    63                           	psect	text51,global,reloc=2,class=CODE,delta=1
    64                           	psect	text52,global,reloc=2,class=CODE,delta=1
    65                           	psect	text53,global,reloc=2,class=CODE,delta=1
    66                           	psect	text54,global,reloc=2,class=CODE,delta=1
    67                           	psect	text55,global,reloc=2,class=CODE,delta=1
    68                           	psect	text56,global,reloc=2,class=CODE,delta=1,inline
    69                           	psect	text57,global,reloc=2,class=CODE,delta=1,inline
    70                           	psect	text58,global,reloc=2,class=CODE,delta=1,inline
    71                           	psect	text59,global,reloc=2,class=CODE,delta=1
    72                           	psect	text60,global,reloc=2,class=CODE,delta=1,inline
    73                           	psect	text61,global,reloc=2,class=CODE,delta=1,inline
    74                           	psect	text62,global,reloc=2,class=CODE,delta=1,inline
    75                           	psect	text63,global,reloc=2,class=CODE,delta=1
    76                           	psect	text64,global,reloc=2,class=CODE,delta=1
    77                           	psect	text65,global,reloc=2,class=CODE,delta=1
    78                           	psect	text66,global,reloc=2,class=CODE,delta=1
    79                           	psect	text67,global,reloc=2,class=CODE,delta=1
    80                           	psect	intsave_regs,global,class=BIGRAM,space=1,delta=1,noexec
    81                           	psect	text68,global,reloc=2,class=CODE,delta=1
    82                           	psect	rparam,global,class=COMRAM,space=1,delta=1,noexec
    83                           	psect	idloc,global,abs,ovrld,class=IDLOC,space=5,delta=1,noexec
    84                           	psect	config,global,abs,ovrld,class=CONFIG,space=4,delta=1,noexec
    85  0000                     
    86                           ; Version 2.20
    87                           ; Generated 05/05/2020 GMT
    88                           ; 
    89                           ; Copyright © 2020, Microchip Technology Inc. and its subsidiaries ("Microchip")
    90                           ; All rights reserved.
    91                           ; 
    92                           ; This software is developed by Microchip Technology Inc. and its subsidiaries ("Microch
      +                          ip").
    93                           ; 
    94                           ; Redistribution and use in source and binary forms, with or without modification, are
    95                           ; permitted provided that the following conditions are met:
    96                           ; 
    97                           ;     1. Redistributions of source code must retain the above copyright notice, this lis
      +                          t of
    98                           ;        conditions and the following disclaimer.
    99                           ; 
   100                           ;     2. Redistributions in binary form must reproduce the above copyright notice, this 
      +                          list
   101                           ;        of conditions and the following disclaimer in the documentation and/or other
   102                           ;        materials provided with the distribution.
   103                           ; 
   104                           ;     3. Microchip's name may not be used to endorse or promote products derived from th
      +                          is
   105                           ;        software without specific prior written permission.
   106                           ; 
   107                           ; THIS SOFTWARE IS PROVIDED BY MICROCHIP "AS IS" AND ANY EXPRESS OR IMPLIED WARRANTIES,
   108                           ; INCLUDING, BUT NOT LIMITED TO, THE IMPLIED WARRANTIES OF MERCHANTABILITY AND FITNESS F
      +                          OR
   109                           ; PURPOSE ARE DISCLAIMED.  IN NO EVENT SHALL MICROCHIP BE LIABLE FOR ANY DIRECT, INDIREC
      +                          T,
   110                           ; INCIDENTAL, SPECIAL, EXEMPLARY, OR CONSEQUENTIAL DAMAGES (INCLUDING BUT NOT LIMITED TO
   111                           ; PROCUREMENT OF SUBSTITUTE GOODS OR SERVICES; LOSS OF USE, DATA OR PROFITS; OR BUSINESS
   112                           ; INTERRUPTION) HOWSOEVER CAUSED AND ON ANY THEORY OF LIABILITY, WHETHER IN CONTRACT, ST
      +                          RICT
   113                           ; LIABILITY, OR TORT (INCLUDING NEGLIGENCE OR OTHERWISE) ARISING IN ANY WAY OUT OF THE U
      +                          SE OF
   114                           ; THIS SOFTWARE, EVEN IF ADVISED OF THE POSSIBILITY OF SUCH DAMAGE.
   115                           ; 
   116                           ; 
   117                           ; Code-generator required, PIC18F67K40 Definitions
   118                           ; 
   119                           ; SFR Addresses
   120  0000                     
   121                           	psect	idataCOMRAM
   122  0019C4                     __pidataCOMRAM:
   123                           	callstack 0
   124                           
   125                           ;initializer for _old_tz_size
   126  0019C4  0020               	dw	32
   127                           
   128                           ;initializer for _old_tz
   129  0019C6  88                 	db	low _old_tz_buf
   130  0019C7  00                 	db	high _old_tz_buf
   131                           
   132                           	psect	smallconst
   133  000E00                     __psmallconst:
   134                           	callstack 0
   135  000E00  00                 	db	0
   136  000E01                     ___month_to_secs@secs_through_month:
   137                           	callstack 0
   138  000E01  0000               	dw	0
   139  000E03  0000               	dw	0
   140  000E05  DE80               	dw	56960
   141  000E07  0028               	dw	40
   142  000E09  C880               	dw	51328
   143  000E0B  004D               	dw	77
   144  000E0D  A700               	dw	42752
   145  000E0F  0076               	dw	118
   146  000E11  3400               	dw	13312
   147  000E13  009E               	dw	158
   148  000E15  1280               	dw	4736
   149  000E17  00C7               	dw	199
   150  000E19  9F80               	dw	40832
   151  000E1B  00EE               	dw	238
   152  000E1D  7E00               	dw	32256
   153  000E1F  0117               	dw	279
   154  000E21  5C80               	dw	23680
   155  000E23  0140               	dw	320
   156  000E25  E980               	dw	59776
   157  000E27  0167               	dw	359
   158  000E29  C800               	dw	51200
   159  000E2B  0190               	dw	400
   160  000E2D  5500               	dw	21760
   161  000E2F  01B8               	dw	440
   162  000E31                     __end_of___month_to_secs@secs_through_month:
   163                           	callstack 0
   164  000E31                     _i2c1_fsmStateTable:
   165                           	callstack 0
   166  000E31  54                 	db	low _I2C1_DO_IDLE
   167  000E32  19                 	db	high _I2C1_DO_IDLE
   168  000E33  00                 	db	low (_I2C1_DO_IDLE shr (0+16))
   169  000E34  32                 	db	low _I2C1_DO_SEND_ADR_READ
   170  000E35  19                 	db	high _I2C1_DO_SEND_ADR_READ
   171  000E36  00                 	db	low (_I2C1_DO_SEND_ADR_READ shr (0+16))
   172  000E37  24                 	db	low _I2C1_DO_SEND_ADR_WRITE
   173  000E38  19                 	db	high _I2C1_DO_SEND_ADR_WRITE
   174  000E39  00                 	db	low (_I2C1_DO_SEND_ADR_WRITE shr (0+16))
   175  000E3A  74                 	db	low _I2C1_DO_TX
   176  000E3B  0E                 	db	high _I2C1_DO_TX
   177  000E3C  00                 	db	low (_I2C1_DO_TX shr (0+16))
   178  000E3D  A2                 	db	low _I2C1_DO_RX
   179  000E3E  10                 	db	high _I2C1_DO_RX
   180  000E3F  00                 	db	low (_I2C1_DO_RX shr (0+16))
   181  000E40  4A                 	db	low _I2C1_DO_RCEN
   182  000E41  19                 	db	high _I2C1_DO_RCEN
   183  000E42  00                 	db	low (_I2C1_DO_RCEN shr (0+16))
   184  000E43  E8                 	db	low _I2C1_DO_TX_EMPTY
   185  000E44  12                 	db	high _I2C1_DO_TX_EMPTY
   186  000E45  00                 	db	low (_I2C1_DO_TX_EMPTY shr (0+16))
   187  000E46  96                 	db	low _I2C1_DO_SEND_RESTART_READ
   188  000E47  19                 	db	high _I2C1_DO_SEND_RESTART_READ
   189  000E48  00                 	db	low (_I2C1_DO_SEND_RESTART_READ shr (0+16))
   190  000E49  8E                 	db	low _I2C1_DO_SEND_RESTART_WRITE
   191  000E4A  19                 	db	high _I2C1_DO_SEND_RESTART_WRITE
   192  000E4B  00                 	db	low (_I2C1_DO_SEND_RESTART_WRITE shr (0+16))
   193  000E4C  86                 	db	low _I2C1_DO_SEND_RESTART
   194  000E4D  19                 	db	high _I2C1_DO_SEND_RESTART
   195  000E4E  00                 	db	low (_I2C1_DO_SEND_RESTART shr (0+16))
   196  000E4F  7E                 	db	low _I2C1_DO_SEND_STOP
   197  000E50  19                 	db	high _I2C1_DO_SEND_STOP
   198  000E51  00                 	db	low (_I2C1_DO_SEND_STOP shr (0+16))
   199  000E52  76                 	db	low _I2C1_DO_RX_ACK
   200  000E53  19                 	db	high _I2C1_DO_RX_ACK
   201  000E54  00                 	db	low (_I2C1_DO_RX_ACK shr (0+16))
   202  000E55  6E                 	db	low _I2C1_DO_RX_NACK_STOP
   203  000E56  19                 	db	high _I2C1_DO_RX_NACK_STOP
   204  000E57  00                 	db	low (_I2C1_DO_RX_NACK_STOP shr (0+16))
   205  000E58  66                 	db	low _I2C1_DO_RX_NACK_RESTART
   206  000E59  19                 	db	high _I2C1_DO_RX_NACK_RESTART
   207  000E5A  00                 	db	low (_I2C1_DO_RX_NACK_RESTART shr (0+16))
   208  000E5B  40                 	db	low _I2C1_DO_RESET
   209  000E5C  19                 	db	high _I2C1_DO_RESET
   210  000E5D  00                 	db	low (_I2C1_DO_RESET shr (0+16))
   211  000E5E  DA                 	db	low _I2C1_DO_ADDRESS_NACK
   212  000E5F  13                 	db	high _I2C1_DO_ADDRESS_NACK
   213  000E60  00                 	db	low (_I2C1_DO_ADDRESS_NACK shr (0+16))
   214  000E61                     __end_of_i2c1_fsmStateTable:
   215                           	callstack 0
   216  000E61                     ___secs_to_tm@days_in_month:
   217                           	callstack 0
   218  000E61  1F                 	db	31
   219  000E62  1E                 	db	30
   220  000E63  1F                 	db	31
   221  000E64  1E                 	db	30
   222  000E65  1F                 	db	31
   223  000E66  1F                 	db	31
   224  000E67  1E                 	db	30
   225  000E68  1F                 	db	31
   226  000E69  1E                 	db	30
   227  000E6A  1F                 	db	31
   228  000E6B  1F                 	db	31
   229  000E6C  1D                 	db	29
   230  000E6D                     __end_of___secs_to_tm@days_in_month:
   231                           	callstack 0
   232  000E6D                     ___gmt:
   233                           	callstack 0
   234  000E6D  47                 	db	71
   235  000E6E  4D                 	db	77
   236  000E6F  54                 	db	84
   237  000E70  00                 	db	0
   238  000E71                     __end_of___gmt:
   239                           	callstack 0
   240  0000                     _PIE3bits	set	3628
   241  0000                     _PIR3bits	set	3638
   242  0000                     _PIR0bits	set	3635
   243  0000                     _SSP1DATPPS	set	3610
   244  0000                     _RC5PPS	set	3687
   245  0000                     _RC3PPS	set	3685
   246  0000                     _SSP1CLKPPS	set	3609
   247  0000                     _INLVLH	set	3773
   248  0000                     _INLVLG	set	3768
   249  0000                     _INLVLF	set	3760
   250  0000                     _INLVLE	set	3755
   251  0000                     _INLVLD	set	3747
   252  0000                     _INLVLC	set	3742
   253  0000                     _INLVLB	set	3734
   254  0000                     _INLVLA	set	3726
   255  0000                     _SLRCONH	set	3774
   256  0000                     _SLRCONG	set	3769
   257  0000                     _SLRCONF	set	3761
   258  0000                     _SLRCONE	set	3756
   259  0000                     _SLRCOND	set	3748
   260  0000                     _SLRCONC	set	3743
   261  0000                     _SLRCONB	set	3735
   262  0000                     _SLRCONA	set	3727
   263  0000                     _ODCOND	set	3749
   264  0000                     _ODCONC	set	3744
   265  0000                     _ODCONH	set	3775
   266  0000                     _ODCONB	set	3736
   267  0000                     _ODCONG	set	3770
   268  0000                     _ODCONA	set	3728
   269  0000                     _ODCONF	set	3762
   270  0000                     _ODCONE	set	3757
   271  0000                     _WPUH	set	3776
   272  0000                     _WPUC	set	3745
   273  0000                     _WPUA	set	3729
   274  0000                     _WPUG	set	3771
   275  0000                     _WPUB	set	3737
   276  0000                     _WPUE	set	3758
   277  0000                     _WPUF	set	3763
   278  0000                     _WPUD	set	3750
   279  0000                     _ANSELA	set	3730
   280  0000                     _ANSELF	set	3764
   281  0000                     _ANSELG	set	3772
   282  0000                     _ANSELE	set	3759
   283  0000                     _ANSELB	set	3738
   284  0000                     _ANSELD	set	3751
   285  0000                     _PMD5	set	3665
   286  0000                     _PMD4	set	3664
   287  0000                     _PMD3	set	3663
   288  0000                     _PMD2	set	3662
   289  0000                     _PMD1	set	3661
   290  0000                     _PMD0	set	3660
   291  0000                     _OSCTUNE	set	3656
   292  0000                     _OSCFRQ	set	3657
   293  0000                     _OSCEN	set	3655
   294  0000                     _OSCCON3	set	3653
   295  0000                     _OSCCON1	set	3651
   296  0000                     _STATUS	set	4056
   297  0000                     _LATDbits	set	3964
   298  0000                     _SSP1STATbits	set	3988
   299  0000                     _SSP1CON2bits	set	3990
   300  0000                     _SSP1BUF	set	3985
   301  0000                     _SSP1CON1bits	set	3989
   302  0000                     _SSP1ADD	set	3986
   303  0000                     _SSP1CON2	set	3990
   304  0000                     _SSP1CON1	set	3989
   305  0000                     _SSP1STAT	set	3988
   306  0000                     _T0CON0bits	set	4053
   307  0000                     _T0CON0	set	4053
   308  0000                     _TMR0L	set	4051
   309  0000                     _TMR0H	set	4052
   310  0000                     _T0CON1	set	4054
   311  0000                     _TRISD	set	3972
   312  0000                     _TRISC	set	3971
   313  0000                     _TRISH	set	3976
   314  0000                     _TRISB	set	3970
   315  0000                     _TRISG	set	3975
   316  0000                     _TRISA	set	3969
   317  0000                     _TRISF	set	3974
   318  0000                     _TRISE	set	3973
   319  0000                     _LATH	set	3968
   320  0000                     _LATC	set	3963
   321  0000                     _LATG	set	3967
   322  0000                     _LATB	set	3962
   323  0000                     _LATF	set	3966
   324  0000                     _LATA	set	3961
   325  0000                     _LATD	set	3964
   326  0000                     _LATE	set	3965
   327  000E71  00                 	db	0
   328  000E72  00                 	db	0	; dummy byte at the end
   329  0000                     
   330                           ; #config settings
   331                           
   332                           	psect	cinit
   333  0015C0                     __pcinit:
   334                           	callstack 0
   335  0015C0                     start_initialization:
   336                           	callstack 0
   337  0015C0                     __initialization:
   338                           	callstack 0
   339                           
   340                           ; Initialize objects allocated to COMRAM (4 bytes)
   341                           ; load TBLPTR registers with __pidataCOMRAM
   342  0015C0  0EC4               	movlw	low __pidataCOMRAM
   343  0015C2  6EF6               	movwf	tblptrl,c
   344  0015C4  0E19               	movlw	high __pidataCOMRAM
   345  0015C6  6EF7               	movwf	tblptrh,c
   346  0015C8  0E00               	movlw	low (__pidataCOMRAM shr (0+16))
   347  0015CA  6EF8               	movwf	tblptru,c
   348  0015CC  EE00  F05A         	lfsr	0,__pdataCOMRAM
   349  0015D0  EE10 F004          	lfsr	1,4
   350  0015D4                     copy_data0:
   351  0015D4  0009               	tblrd		*+
   352  0015D6  CFF5 FFEE          	movff	tablat,postinc0
   353  0015DA  50E5               	movf	postdec1,w,c
   354  0015DC  50E1               	movf	fsr1l,w,c
   355  0015DE  E1FA               	bnz	copy_data0
   356                           
   357                           ; Clear objects allocated to BANK0 (130 bytes)
   358  0015E0  EE00  F060         	lfsr	0,__pbssBANK0
   359  0015E4  0E82               	movlw	130
   360  0015E6                     clear_0:
   361  0015E6  6AEE               	clrf	postinc0,c
   362  0015E8  06E8               	decf	wreg,f,c
   363  0015EA  E1FD               	bnz	clear_0
   364                           
   365                           ; Clear objects allocated to COMRAM (62 bytes)
   366  0015EC  EE00  F001         	lfsr	0,__pbssCOMRAM
   367  0015F0  0E3E               	movlw	62
   368  0015F2                     clear_1:
   369  0015F2  6AEE               	clrf	postinc0,c
   370  0015F4  06E8               	decf	wreg,f,c
   371  0015F6  E1FD               	bnz	clear_1
   372  0015F8                     end_of_initialization:
   373                           	callstack 0
   374  0015F8                     __end_of__initialization:
   375                           	callstack 0
   376  0015F8  0100               	movlb	0
   377  0015FA  EF54  F00A         	goto	_main	;jump to C main() function
   378                           
   379                           	psect	bssCOMRAM
   380  000001                     __pbssCOMRAM:
   381                           	callstack 0
   382  000001                     _I2C1_Status:
   383                           	callstack 0
   384  000001                     	ds	42
   385  00002B                     	ds	2
   386  00002D                     	ds	2
   387  00002F                     	ds	2
   388  000031                     	ds	2
   389  000033                     	ds	2
   390  000035                     	ds	2
   391  000037                     	ds	2
   392  000039                     _daylight:
   393                           	callstack 0
   394  000039                     	ds	2
   395  00003B                     ___daylight:
   396                           	callstack 0
   397  00003B                     	ds	2
   398  00003D                     _errno:
   399                           	callstack 0
   400  00003D                     	ds	2
   401                           
   402                           	psect	dataCOMRAM
   403  00005A                     __pdataCOMRAM:
   404                           	callstack 0
   405  00005A                     	ds	2
   406  00005C                     	ds	2
   407                           
   408                           	psect	bssBANK0
   409  000060                     __pbssBANK0:
   410                           	callstack 0
   411  000060                     _dateTime:
   412                           	callstack 0
   413  000060                     	ds	14
   414  00006E                     _tzname:
   415                           	callstack 0
   416  00006E                     	ds	6
   417  000074                     _lock:
   418                           	callstack 0
   419  000074                     	ds	4
   420  000078                     _dst_off:
   421                           	callstack 0
   422  000078                     	ds	4
   423  00007C                     _timezone:
   424                           	callstack 0
   425  00007C                     	ds	4
   426  000080                     ___tzname:
   427                           	callstack 0
   428  000080                     	ds	4
   429  000084                     ___timezone:
   430                           	callstack 0
   431  000084                     	ds	4
   432  000088                     _old_tz_buf:
   433  000088                     	ds	32
   434  0000A8                     localtime@tm:
   435                           	callstack 0
   436  0000A8                     	ds	24
   437  0000C0                     _r1:
   438                           	callstack 0
   439  0000C0                     	ds	10
   440  0000CA                     _r0:
   441                           	callstack 0
   442  0000CA                     	ds	10
   443  0000D4                     _dst_name:
   444                           	callstack 0
   445  0000D4                     	ds	7
   446  0000DB                     _std_name:
   447                           	callstack 0
   448  0000DB                     	ds	7
   449                           
   450                           	psect	cstackCOMRAM
   451  00003F                     __pcstackCOMRAM:
   452                           	callstack 0
   453  00003F                     I2C1_Open@address:
   454                           	callstack 0
   455  00003F                     I2C1_Close@returnValue:
   456                           	callstack 0
   457  00003F                     I2C1_MasterSendTxData@data:
   458                           	callstack 0
   459  00003F                     I2C1_SetBuffer@buffer:
   460                           	callstack 0
   461  00003F                     I2C1_SetCallback@cb:
   462                           	callstack 0
   463                           
   464                           ; 3 bytes @ 0x0
   465  00003F                     	ds	1
   466  000040                     I2C1_Open@returnValue:
   467                           	callstack 0
   468                           
   469                           ; 1 bytes @ 0x1
   470  000040                     	ds	1
   471  000041                     I2C1_SetBuffer@bufferSize:
   472                           	callstack 0
   473                           
   474                           ; 2 bytes @ 0x2
   475  000041                     	ds	1
   476  000042                     I2C1_SetCallback@ptr:
   477                           	callstack 0
   478                           
   479                           ; 2 bytes @ 0x3
   480  000042                     	ds	1
   481  000043                     
   482                           ; 1 bytes @ 0x4
   483  000043                     	ds	1
   484  000044                     I2C1_SetCallback@idx:
   485                           	callstack 0
   486                           
   487                           ; 1 bytes @ 0x5
   488  000044                     	ds	1
   489  000045                     I2C1_SetDataCompleteCallback@cb:
   490                           	callstack 0
   491  000045                     I2C1_SetAddressNackCallback@cb:
   492                           	callstack 0
   493                           
   494                           ; 3 bytes @ 0x6
   495  000045                     	ds	3
   496  000048                     I2C1_SetDataCompleteCallback@ptr:
   497                           	callstack 0
   498  000048                     I2C1_SetAddressNackCallback@ptr:
   499                           	callstack 0
   500                           
   501                           ; 2 bytes @ 0x9
   502  000048                     	ds	2
   503  00004A                     wr1RegCompleteHandler@p:
   504                           	callstack 0
   505  00004A                     rd1RegCompleteHandler@p:
   506                           	callstack 0
   507  00004A                     rd2RegCompleteHandler@p:
   508                           	callstack 0
   509  00004A                     wr2RegCompleteHandler@p:
   510                           	callstack 0
   511  00004A                     rdBlkRegCompleteHandler@p:
   512                           	callstack 0
   513  00004A                     rd1RegCompleteHandler@i2c1_master_example$F145@ptr:
   514                           	callstack 0
   515  00004A                     rd2RegCompleteHandler@i2c1_master_example$F156@ptr:
   516                           	callstack 0
   517  00004A                     wr1RegCompleteHandler@i2c1_master_example$F162@ptr:
   518                           	callstack 0
   519  00004A                     wr2RegCompleteHandler@i2c1_master_example$F168@ptr:
   520                           	callstack 0
   521  00004A                     rdBlkRegCompleteHandler@i2c1_master_example$F179@ptr:
   522                           	callstack 0
   523  00004A                     I2C1_CallbackReturnReset@funPtr:
   524                           	callstack 0
   525                           
   526                           ; 2 bytes @ 0xB
   527  00004A                     	ds	2
   528  00004C                     ??_I2C1_DO_TX:
   529  00004C                     ??_I2C1_DO_RX:
   530  00004C                     ??_I2C1_DO_TX_EMPTY:
   531  00004C                     ??_I2C1_DO_ADDRESS_NACK:
   532  00004C                     
   533                           ; 1 bytes @ 0xD
   534  00004C                     	ds	2
   535  00004E                     I2C1_MasterOperation@read:
   536                           	callstack 0
   537                           
   538                           ; 1 bytes @ 0xF
   539  00004E                     	ds	1
   540  00004F                     I2C1_MasterOperation@returnValue:
   541                           	callstack 0
   542                           
   543                           ; 1 bytes @ 0x10
   544  00004F                     	ds	1
   545  000050                     i2c_write1ByteRegister@reg:
   546                           	callstack 0
   547  000050                     i2c_read1ByteRegister@reg:
   548                           	callstack 0
   549                           
   550                           ; 1 bytes @ 0x11
   551  000050                     	ds	1
   552  000051                     i2c_write1ByteRegister@data:
   553                           	callstack 0
   554  000051                     i2c_read1ByteRegister@address:
   555                           	callstack 0
   556                           
   557                           ; 1 bytes @ 0x12
   558  000051                     	ds	1
   559  000052                     i2c_write1ByteRegister@address:
   560                           	callstack 0
   561  000052                     i2c_read1ByteRegister@e:
   562                           	callstack 0
   563                           
   564                           ; 1 bytes @ 0x13
   565  000052                     	ds	1
   566  000053                     rtcc_write@data:
   567                           	callstack 0
   568  000053                     i2c_read1ByteRegister@x:
   569                           	callstack 0
   570                           
   571                           ; 2 bytes @ 0x14
   572  000053                     	ds	1
   573  000054                     ??_rtcc_write:
   574                           
   575                           ; 1 bytes @ 0x15
   576  000054                     	ds	1
   577  000055                     i2c_read1ByteRegister@d2:
   578                           	callstack 0
   579  000055                     rtcc_write@addr:
   580                           	callstack 0
   581                           
   582                           ; 1 bytes @ 0x16
   583  000055                     	ds	1
   584  000056                     rtcc_read@addr:
   585                           	callstack 0
   586                           
   587                           ; 1 bytes @ 0x17
   588  000056                     	ds	1
   589  000057                     ??_rtc6_Initialize:
   590                           
   591                           ; 1 bytes @ 0x18
   592  000057                     	ds	1
   593  000058                     rtc6_Initialize@reg:
   594                           	callstack 0
   595                           
   596                           ; 1 bytes @ 0x19
   597  000058                     	ds	1
   598  000059                     ??_main:
   599                           
   600                           ; 1 bytes @ 0x1A
   601  000059                     	ds	1
   602                           
   603 ;;
   604 ;;Main: autosize = 0, tempsize = 1, incstack = 0, save=0
   605 ;;
   606 ;; *************** function _main *****************
   607 ;; Defined at:
   608 ;;		line 6 in file "main.c"
   609 ;; Parameters:    Size  Location     Type
   610 ;;		None
   611 ;; Auto vars:     Size  Location     Type
   612 ;;		None
   613 ;; Return value:  Size  Location     Type
   614 ;;                  1    wreg      void 
   615 ;; Registers used:
   616 ;;		wreg, fsr2l, fsr2h, status,2, status,0, pclath, tosl, tblptrl, tblptrh, tblptru, prodl, prodh, cstack
   617 ;; Tracked objects:
   618 ;;		On entry : 0/0
   619 ;;		On exit  : 0/0
   620 ;;		Unchanged: 0/0
   621 ;; Data sizes:     COMRAM   BANK0   BANK1   BANK2   BANK3   BANK4   BANK5   BANK6   BANK7   BANK8   BANK9  BANK10  BANK1
      +1  BANK12  BANK13
   622 ;;      Params:         0       0       0       0       0       0       0       0       0       0       0       0       
      +0       0       0
   623 ;;      Locals:         0       0       0       0       0       0       0       0       0       0       0       0       
      +0       0       0
   624 ;;      Temps:          1       0       0       0       0       0       0       0       0       0       0       0       
      +0       0       0
   625 ;;      Totals:         1       0       0       0       0       0       0       0       0       0       0       0       
      +0       0       0
   626 ;;Total ram usage:        1 bytes
   627 ;; Hardware stack levels required when called:   12
   628 ;; This function calls:
   629 ;;		_SYSTEM_Initialize
   630 ;;		_TMR0_HasOverflowOccured
   631 ;;		_TMR0_StartTimer
   632 ;;		_TMR0_StopTimer
   633 ;; This function is called by:
   634 ;;		Startup code after reset
   635 ;; This function uses a non-reentrant model
   636 ;;
   637                           
   638                           	psect	text0
   639  0014A8                     __ptext0:
   640                           	callstack 0
   641  0014A8                     _main:
   642                           	callstack 19
   643  0014A8                     
   644                           ;main.c: 9:     SYSTEM_Initialize();
   645  0014A8  EC3F  F00C         	call	_SYSTEM_Initialize	;wreg free
   646  0014AC                     l4324:
   647                           
   648                           ;main.c: 26:     TMR0_StartTimer();
   649  0014AC  ECE6  F00C         	call	_TMR0_StartTimer	;wreg free
   650  0014B0                     l4326:
   651                           
   652                           ;main.c: 28:     {;main.c: 29:         if(TMR0_HasOverflowOccured()) {
   653  0014B0  EC58  F00C         	call	_TMR0_HasOverflowOccured	;wreg free
   654  0014B4  0900               	iorlw	0
   655  0014B6  B4D8               	btfsc	status,2,c
   656  0014B8  EF60  F00A         	goto	u2181
   657  0014BC  EF62  F00A         	goto	u2180
   658  0014C0                     u2181:
   659  0014C0  EF58  F00A         	goto	l4326
   660  0014C4                     u2180:
   661  0014C4                     
   662                           ;main.c: 30:             TMR0_StopTimer();
   663  0014C4  ECE4  F00C         	call	_TMR0_StopTimer	;wreg free
   664  0014C8  B27C               	btfsc	124,1,c	;volatile
   665  0014CA  EF69  F00A         	goto	u2191
   666  0014CE  EF6C  F00A         	goto	u2190
   667  0014D2                     u2191:
   668  0014D2  0E01               	movlw	1
   669  0014D4  EF6D  F00A         	goto	u2196
   670  0014D8                     u2190:
   671  0014D8  0E00               	movlw	0
   672  0014DA                     u2196:
   673  0014DA  0AFF               	xorlw	255
   674  0014DC  6E59               	movwf	??_main^0,c
   675  0014DE  4659               	rlncf	??_main^0,f,c
   676  0014E0  507C               	movf	124,w,c	;volatile
   677  0014E2  1859               	xorwf	??_main^0,w,c
   678  0014E4  0BFD               	andlw	-3
   679  0014E6  1859               	xorwf	??_main^0,w,c
   680  0014E8  6E7C               	movwf	124,c	;volatile
   681  0014EA                     
   682                           ;main.c: 32:             PIR0bits.TMR0IF = 0;
   683  0014EA  010E               	movlb	14	; () banked
   684  0014EC  9B33               	bcf	51,5,b	;volatile
   685  0014EE  EF56  F00A         	goto	l4324
   686  0014F2  EF00  F000         	goto	start
   687  0014F6                     __end_of_main:
   688                           	callstack 0
   689                           
   690 ;; *************** function _TMR0_StopTimer *****************
   691 ;; Defined at:
   692 ;;		line 86 in file "mcc_generated_files/tmr0.c"
   693 ;; Parameters:    Size  Location     Type
   694 ;;		None
   695 ;; Auto vars:     Size  Location     Type
   696 ;;		None
   697 ;; Return value:  Size  Location     Type
   698 ;;                  1    wreg      void 
   699 ;; Registers used:
   700 ;;		None
   701 ;; Tracked objects:
   702 ;;		On entry : 0/0
   703 ;;		On exit  : 0/0
   704 ;;		Unchanged: 0/0
   705 ;; Data sizes:     COMRAM   BANK0   BANK1   BANK2   BANK3   BANK4   BANK5   BANK6   BANK7   BANK8   BANK9  BANK10  BANK1
      +1  BANK12  BANK13
   706 ;;      Params:         0       0       0       0       0       0       0       0       0       0       0       0       
      +0       0       0
   707 ;;      Locals:         0       0       0       0       0       0       0       0       0       0       0       0       
      +0       0       0
   708 ;;      Temps:          0       0       0       0       0       0       0       0       0       0       0       0       
      +0       0       0
   709 ;;      Totals:         0       0       0       0       0       0       0       0       0       0       0       0       
      +0       0       0
   710 ;;Total ram usage:        0 bytes
   711 ;; Hardware stack levels used:    1
   712 ;; This function calls:
   713 ;;		Nothing
   714 ;; This function is called by:
   715 ;;		_main
   716 ;; This function uses a non-reentrant model
   717 ;;
   718                           
   719                           	psect	text1
   720  0019C8                     __ptext1:
   721                           	callstack 0
   722  0019C8                     _TMR0_StopTimer:
   723                           	callstack 30
   724  0019C8                     
   725                           ;mcc_generated_files/tmr0.c: 89:     T0CON0bits.T0EN = 0;
   726  0019C8  9ED5               	bcf	213,7,c	;volatile
   727  0019CA  0012               	return		;funcret
   728  0019CC                     __end_of_TMR0_StopTimer:
   729                           	callstack 0
   730                           
   731 ;; *************** function _TMR0_StartTimer *****************
   732 ;; Defined at:
   733 ;;		line 80 in file "mcc_generated_files/tmr0.c"
   734 ;; Parameters:    Size  Location     Type
   735 ;;		None
   736 ;; Auto vars:     Size  Location     Type
   737 ;;		None
   738 ;; Return value:  Size  Location     Type
   739 ;;                  1    wreg      void 
   740 ;; Registers used:
   741 ;;		None
   742 ;; Tracked objects:
   743 ;;		On entry : 0/0
   744 ;;		On exit  : 0/0
   745 ;;		Unchanged: 0/0
   746 ;; Data sizes:     COMRAM   BANK0   BANK1   BANK2   BANK3   BANK4   BANK5   BANK6   BANK7   BANK8   BANK9  BANK10  BANK1
      +1  BANK12  BANK13
   747 ;;      Params:         0       0       0       0       0       0       0       0       0       0       0       0       
      +0       0       0
   748 ;;      Locals:         0       0       0       0       0       0       0       0       0       0       0       0       
      +0       0       0
   749 ;;      Temps:          0       0       0       0       0       0       0       0       0       0       0       0       
      +0       0       0
   750 ;;      Totals:         0       0       0       0       0       0       0       0       0       0       0       0       
      +0       0       0
   751 ;;Total ram usage:        0 bytes
   752 ;; Hardware stack levels used:    1
   753 ;; This function calls:
   754 ;;		Nothing
   755 ;; This function is called by:
   756 ;;		_main
   757 ;; This function uses a non-reentrant model
   758 ;;
   759                           
   760                           	psect	text2
   761  0019CC                     __ptext2:
   762                           	callstack 0
   763  0019CC                     _TMR0_StartTimer:
   764                           	callstack 30
   765  0019CC                     
   766                           ;mcc_generated_files/tmr0.c: 83:     T0CON0bits.T0EN = 1;
   767  0019CC  8ED5               	bsf	213,7,c	;volatile
   768  0019CE  0012               	return		;funcret
   769  0019D0                     __end_of_TMR0_StartTimer:
   770                           	callstack 0
   771                           
   772 ;; *************** function _TMR0_HasOverflowOccured *****************
   773 ;; Defined at:
   774 ;;		line 114 in file "mcc_generated_files/tmr0.c"
   775 ;; Parameters:    Size  Location     Type
   776 ;;		None
   777 ;; Auto vars:     Size  Location     Type
   778 ;;		None
   779 ;; Return value:  Size  Location     Type
   780 ;;                  1    wreg      _Bool 
   781 ;; Registers used:
   782 ;;		wreg
   783 ;; Tracked objects:
   784 ;;		On entry : 0/0
   785 ;;		On exit  : 0/0
   786 ;;		Unchanged: 0/0
   787 ;; Data sizes:     COMRAM   BANK0   BANK1   BANK2   BANK3   BANK4   BANK5   BANK6   BANK7   BANK8   BANK9  BANK10  BANK1
      +1  BANK12  BANK13
   788 ;;      Params:         0       0       0       0       0       0       0       0       0       0       0       0       
      +0       0       0
   789 ;;      Locals:         0       0       0       0       0       0       0       0       0       0       0       0       
      +0       0       0
   790 ;;      Temps:          0       0       0       0       0       0       0       0       0       0       0       0       
      +0       0       0
   791 ;;      Totals:         0       0       0       0       0       0       0       0       0       0       0       0       
      +0       0       0
   792 ;;Total ram usage:        0 bytes
   793 ;; Hardware stack levels used:    1
   794 ;; This function calls:
   795 ;;		Nothing
   796 ;; This function is called by:
   797 ;;		_main
   798 ;; This function uses a non-reentrant model
   799 ;;
   800                           
   801                           	psect	text3
   802  0018B0                     __ptext3:
   803                           	callstack 0
   804  0018B0                     _TMR0_HasOverflowOccured:
   805                           	callstack 30
   806  0018B0                     
   807                           ;mcc_generated_files/tmr0.c: 117:     return(PIR0bits.TMR0IF);
   808  0018B0  010E               	movlb	14	; () banked
   809  0018B2  BB33               	btfsc	51,5,b	;volatile
   810  0018B4  EF5E  F00C         	goto	u281
   811  0018B8  EF61  F00C         	goto	u280
   812  0018BC                     u281:
   813  0018BC  0E01               	movlw	1
   814  0018BE  EF62  F00C         	goto	u286
   815  0018C2                     u280:
   816  0018C2  0E00               	movlw	0
   817  0018C4                     u286:
   818  0018C4                     
   819                           ; BSR set to: 14
   820  0018C4  0012               	return		;funcret
   821  0018C6                     __end_of_TMR0_HasOverflowOccured:
   822                           	callstack 0
   823                           
   824 ;; *************** function _SYSTEM_Initialize *****************
   825 ;; Defined at:
   826 ;;		line 50 in file "mcc_generated_files/mcc.c"
   827 ;; Parameters:    Size  Location     Type
   828 ;;		None
   829 ;; Auto vars:     Size  Location     Type
   830 ;;		None
   831 ;; Return value:  Size  Location     Type
   832 ;;                  1    wreg      void 
   833 ;; Registers used:
   834 ;;		wreg, fsr2l, fsr2h, status,2, status,0, pclath, tosl, tblptrl, tblptrh, tblptru, prodl, prodh, cstack
   835 ;; Tracked objects:
   836 ;;		On entry : 0/0
   837 ;;		On exit  : 0/0
   838 ;;		Unchanged: 0/0
   839 ;; Data sizes:     COMRAM   BANK0   BANK1   BANK2   BANK3   BANK4   BANK5   BANK6   BANK7   BANK8   BANK9  BANK10  BANK1
      +1  BANK12  BANK13
   840 ;;      Params:         0       0       0       0       0       0       0       0       0       0       0       0       
      +0       0       0
   841 ;;      Locals:         0       0       0       0       0       0       0       0       0       0       0       0       
      +0       0       0
   842 ;;      Temps:          0       0       0       0       0       0       0       0       0       0       0       0       
      +0       0       0
   843 ;;      Totals:         0       0       0       0       0       0       0       0       0       0       0       0       
      +0       0       0
   844 ;;Total ram usage:        0 bytes
   845 ;; Hardware stack levels used:    1
   846 ;; Hardware stack levels required when called:   11
   847 ;; This function calls:
   848 ;;		_I2C1_Initialize
   849 ;;		_OSCILLATOR_Initialize
   850 ;;		_PIN_MANAGER_Initialize
   851 ;;		_PMD_Initialize
   852 ;;		_TMR0_Initialize
   853 ;;		_rtc6_Initialize
   854 ;; This function is called by:
   855 ;;		_main
   856 ;; This function uses a non-reentrant model
   857 ;;
   858                           
   859                           	psect	text4
   860  00187E                     __ptext4:
   861                           	callstack 0
   862  00187E                     _SYSTEM_Initialize:
   863                           	callstack 19
   864  00187E                     
   865                           ;mcc_generated_files/mcc.c: 52:     PMD_Initialize();
   866  00187E  EC31  F00C         	call	_PMD_Initialize	;wreg free
   867                           
   868                           ;mcc_generated_files/mcc.c: 53:     I2C1_Initialize();
   869  001882  EC78  F00C         	call	_I2C1_Initialize	;wreg free
   870                           
   871                           ;mcc_generated_files/mcc.c: 54:     PIN_MANAGER_Initialize();
   872  001886  EC9C  F007         	call	_PIN_MANAGER_Initialize	;wreg free
   873                           
   874                           ;mcc_generated_files/mcc.c: 55:     OSCILLATOR_Initialize();
   875  00188A  EC4C  F00C         	call	_OSCILLATOR_Initialize	;wreg free
   876                           
   877                           ;mcc_generated_files/mcc.c: 56:     TMR0_Initialize();
   878  00188E  EC63  F00C         	call	_TMR0_Initialize	;wreg free
   879  001892                     
   880                           ;mcc_generated_files/mcc.c: 57:     rtc6_Initialize();
   881  001892  EC36  F009         	call	_rtc6_Initialize	;wreg free
   882  001896  0012               	return		;funcret
   883  001898                     __end_of_SYSTEM_Initialize:
   884                           	callstack 0
   885                           
   886 ;; *************** function _rtc6_Initialize *****************
   887 ;; Defined at:
   888 ;;		line 111 in file "mcc_generated_files/RTC6.c"
   889 ;; Parameters:    Size  Location     Type
   890 ;;		None
   891 ;; Auto vars:     Size  Location     Type
   892 ;;  reg             1   25[COMRAM] unsigned char 
   893 ;; Return value:  Size  Location     Type
   894 ;;                  1    wreg      void 
   895 ;; Registers used:
   896 ;;		wreg, fsr2l, fsr2h, status,2, status,0, pclath, tosl, tblptrl, tblptrh, tblptru, prodl, prodh, cstack
   897 ;; Tracked objects:
   898 ;;		On entry : 0/0
   899 ;;		On exit  : 0/0
   900 ;;		Unchanged: 0/0
   901 ;; Data sizes:     COMRAM   BANK0   BANK1   BANK2   BANK3   BANK4   BANK5   BANK6   BANK7   BANK8   BANK9  BANK10  BANK1
      +1  BANK12  BANK13
   902 ;;      Params:         0       0       0       0       0       0       0       0       0       0       0       0       
      +0       0       0
   903 ;;      Locals:         1       0       0       0       0       0       0       0       0       0       0       0       
      +0       0       0
   904 ;;      Temps:          1       0       0       0       0       0       0       0       0       0       0       0       
      +0       0       0
   905 ;;      Totals:         2       0       0       0       0       0       0       0       0       0       0       0       
      +0       0       0
   906 ;;Total ram usage:        2 bytes
   907 ;; Hardware stack levels used:    1
   908 ;; Hardware stack levels required when called:   10
   909 ;; This function calls:
   910 ;;		_rtcc_read
   911 ;;		_rtcc_write
   912 ;; This function is called by:
   913 ;;		_SYSTEM_Initialize
   914 ;; This function uses a non-reentrant model
   915 ;;
   916                           
   917                           	psect	text5
   918  00126C                     __ptext5:
   919                           	callstack 0
   920  00126C                     _rtc6_Initialize:
   921                           	callstack 19
   922  00126C                     
   923                           ;mcc_generated_files/RTC6.c: 112:     uint8_t reg = 0;
   924  00126C  0E00               	movlw	0
   925  00126E  6E58               	movwf	rtc6_Initialize@reg^0,c
   926  001270                     
   927                           ;mcc_generated_files/RTC6.c: 114:     dateTime.day = (rtcc_read(0x03) & 0x07);
   928  001270  0E03               	movlw	3
   929  001272  EC8B  F00C         	call	_rtcc_read
   930  001276  6E57               	movwf	??_rtc6_Initialize^0,c
   931  001278  0E07               	movlw	7
   932  00127A  1657               	andwf	??_rtc6_Initialize^0,f,c
   933  00127C  5057               	movf	??_rtc6_Initialize^0,w,c
   934  00127E  0100               	movlb	0	; () banked
   935  001280  6F6C               	movwf	(_dateTime+12)& (0+255),b
   936  001282  6B6D               	clrf	(_dateTime+13)& (0+255),b
   937  001284                     
   938                           ; BSR set to: 0
   939                           ;mcc_generated_files/RTC6.c: 115:     rtcc_write(0x03, (dateTime.day | 0x08));
   940  001284  516C               	movf	(_dateTime+12)& (0+255),w,b
   941  001286  0908               	iorlw	8
   942  001288  6E53               	movwf	rtcc_write@data^0,c
   943  00128A  0E03               	movlw	3
   944  00128C  ECD4  F00B         	call	_rtcc_write
   945  001290                     
   946                           ;mcc_generated_files/RTC6.c: 116:     dateTime.sec = rtcc_read(0x00);
   947  001290  0E00               	movlw	0
   948  001292  EC8B  F00C         	call	_rtcc_read
   949  001296  6E57               	movwf	??_rtc6_Initialize^0,c
   950  001298  5057               	movf	??_rtc6_Initialize^0,w,c
   951  00129A  0100               	movlb	0	; () banked
   952  00129C  6F60               	movwf	_dateTime& (0+255),b
   953  00129E  6B61               	clrf	(_dateTime+1)& (0+255),b
   954  0012A0                     
   955                           ; BSR set to: 0
   956                           ;mcc_generated_files/RTC6.c: 120:     rtcc_write(0x07, 0x00 + 0x40 + 0x00);
   957  0012A0  0E40               	movlw	64
   958  0012A2  6E53               	movwf	rtcc_write@data^0,c
   959  0012A4  0E07               	movlw	7
   960  0012A6  ECD4  F00B         	call	_rtcc_write
   961  0012AA                     
   962                           ;mcc_generated_files/RTC6.c: 123:     rtcc_write(0x00, dateTime.sec | 0x80);
   963  0012AA  0100               	movlb	0	; () banked
   964  0012AC  5160               	movf	_dateTime& (0+255),w,b
   965  0012AE  0980               	iorlw	128
   966  0012B0  6E53               	movwf	rtcc_write@data^0,c
   967  0012B2  0E00               	movlw	0
   968  0012B4  ECD4  F00B         	call	_rtcc_write
   969                           
   970                           ;mcc_generated_files/RTC6.c: 124:     while (!reg) {
   971  0012B8  EF64  F009         	goto	l3460
   972  0012BC                     l3456:
   973                           
   974                           ;mcc_generated_files/RTC6.c: 125:         reg = rtcc_read(0x03);
   975  0012BC  0E03               	movlw	3
   976  0012BE  EC8B  F00C         	call	_rtcc_read
   977  0012C2  6E58               	movwf	rtc6_Initialize@reg^0,c
   978  0012C4                     
   979                           ;mcc_generated_files/RTC6.c: 126:         reg &= 0x20;
   980  0012C4  0E20               	movlw	32
   981  0012C6  1658               	andwf	rtc6_Initialize@reg^0,f,c
   982  0012C8                     l3460:
   983                           
   984                           ;mcc_generated_files/RTC6.c: 124:     while (!reg) {
   985  0012C8  5058               	movf	rtc6_Initialize@reg^0,w,c
   986  0012CA  B4D8               	btfsc	status,2,c
   987  0012CC  EF6A  F009         	goto	u1081
   988  0012D0  EF6C  F009         	goto	u1080
   989  0012D4                     u1081:
   990  0012D4  EF5E  F009         	goto	l3456
   991  0012D8                     u1080:
   992  0012D8                     
   993                           ;mcc_generated_files/RTC6.c: 130:     rtcc_write(0x03, dateTime.day | (0x08 & 0xEF));
   994  0012D8  0100               	movlb	0	; () banked
   995  0012DA  516C               	movf	(_dateTime+12)& (0+255),w,b
   996  0012DC  0908               	iorlw	8
   997  0012DE  6E53               	movwf	rtcc_write@data^0,c
   998  0012E0  0E03               	movlw	3
   999  0012E2  ECD4  F00B         	call	_rtcc_write
  1000  0012E6  0012               	return		;funcret
  1001  0012E8                     __end_of_rtc6_Initialize:
  1002                           	callstack 0
  1003                           
  1004 ;; *************** function _rtcc_write *****************
  1005 ;; Defined at:
  1006 ;;		line 106 in file "mcc_generated_files/RTC6.c"
  1007 ;; Parameters:    Size  Location     Type
  1008 ;;  addr            1    wreg     unsigned char 
  1009 ;;  data            1   20[COMRAM] unsigned char 
  1010 ;; Auto vars:     Size  Location     Type
  1011 ;;  addr            1   22[COMRAM] unsigned char 
  1012 ;; Return value:  Size  Location     Type
  1013 ;;                  1    wreg      void 
  1014 ;; Registers used:
  1015 ;;		wreg, fsr2l, fsr2h, status,2, status,0, pclath, tosl, tblptrl, tblptrh, tblptru, prodl, prodh, cstack
  1016 ;; Tracked objects:
  1017 ;;		On entry : 0/0
  1018 ;;		On exit  : 0/0
  1019 ;;		Unchanged: 0/0
  1020 ;; Data sizes:     COMRAM   BANK0   BANK1   BANK2   BANK3   BANK4   BANK5   BANK6   BANK7   BANK8   BANK9  BANK10  BANK1
      +1  BANK12  BANK13
  1021 ;;      Params:         1       0       0       0       0       0       0       0       0       0       0       0       
      +0       0       0
  1022 ;;      Locals:         1       0       0       0       0       0       0       0       0       0       0       0       
      +0       0       0
  1023 ;;      Temps:          1       0       0       0       0       0       0       0       0       0       0       0       
      +0       0       0
  1024 ;;      Totals:         3       0       0       0       0       0       0       0       0       0       0       0       
      +0       0       0
  1025 ;;Total ram usage:        3 bytes
  1026 ;; Hardware stack levels used:    1
  1027 ;; Hardware stack levels required when called:    9
  1028 ;; This function calls:
  1029 ;;		_i2c_write1ByteRegister
  1030 ;; This function is called by:
  1031 ;;		_rtc6_Initialize
  1032 ;;		_rtc6_EnableAlarms
  1033 ;;		_rtc6_SetComponent
  1034 ;;		_rtc6_SetAlarm0
  1035 ;;		_rtc6_ClearAlarm0
  1036 ;;		_rtc6_SetAlarm1
  1037 ;;		_rtc6_ClearAlarm1
  1038 ;; This function uses a non-reentrant model
  1039 ;;
  1040                           
  1041                           	psect	text6
  1042  0017A8                     __ptext6:
  1043                           	callstack 0
  1044  0017A8                     _rtcc_write:
  1045                           	callstack 19
  1046                           
  1047                           ;incstack = 0
  1048                           ;rtcc_write@addr stored from wreg
  1049  0017A8  6E55               	movwf	rtcc_write@addr^0,c
  1050  0017AA                     
  1051                           ;mcc_generated_files/RTC6.c: 107:     i2c_write1ByteRegister(0x6F, addr, data);
  1052  0017AA  C055  F050         	movff	rtcc_write@addr,i2c_write1ByteRegister@reg
  1053  0017AE  C053  F051         	movff	rtcc_write@data,i2c_write1ByteRegister@data
  1054  0017B2  0E6F               	movlw	111
  1055  0017B4  ECB2  F009         	call	_i2c_write1ByteRegister
  1056  0017B8                     
  1057                           ;mcc_generated_files/RTC6.c: 108:     _delay((unsigned long)((5)*(16000000/4000.0)));
  1058  0017B8  0E1A               	movlw	26
  1059  0017BA  6E54               	movwf	??_rtcc_write^0,c
  1060  0017BC  0EF8               	movlw	248
  1061  0017BE                     u2317:
  1062  0017BE  2EE8               	decfsz	wreg,f,c
  1063  0017C0  D7FE               	bra	u2317
  1064  0017C2  2E54               	decfsz	??_rtcc_write^0,f,c
  1065  0017C4  D7FC               	bra	u2317
  1066  0017C6  D000               	nop2	
  1067  0017C8  0012               	return		;funcret
  1068  0017CA                     __end_of_rtcc_write:
  1069                           	callstack 0
  1070                           
  1071 ;; *************** function _i2c_write1ByteRegister *****************
  1072 ;; Defined at:
  1073 ;;		line 51 in file "mcc_generated_files/drivers/i2c_simple_master.c"
  1074 ;; Parameters:    Size  Location     Type
  1075 ;;  address         1    wreg     unsigned char 
  1076 ;;  reg             1   17[COMRAM] unsigned char 
  1077 ;;  data            1   18[COMRAM] unsigned char 
  1078 ;; Auto vars:     Size  Location     Type
  1079 ;;  address         1   19[COMRAM] unsigned char 
  1080 ;; Return value:  Size  Location     Type
  1081 ;;                  1    wreg      void 
  1082 ;; Registers used:
  1083 ;;		wreg, fsr2l, fsr2h, status,2, status,0, pclath, tosl, tblptrl, tblptrh, tblptru, prodl, prodh, cstack
  1084 ;; Tracked objects:
  1085 ;;		On entry : 0/0
  1086 ;;		On exit  : 0/0
  1087 ;;		Unchanged: 0/0
  1088 ;; Data sizes:     COMRAM   BANK0   BANK1   BANK2   BANK3   BANK4   BANK5   BANK6   BANK7   BANK8   BANK9  BANK10  BANK1
      +1  BANK12  BANK13
  1089 ;;      Params:         2       0       0       0       0       0       0       0       0       0       0       0       
      +0       0       0
  1090 ;;      Locals:         1       0       0       0       0       0       0       0       0       0       0       0       
      +0       0       0
  1091 ;;      Temps:          0       0       0       0       0       0       0       0       0       0       0       0       
      +0       0       0
  1092 ;;      Totals:         3       0       0       0       0       0       0       0       0       0       0       0       
      +0       0       0
  1093 ;;Total ram usage:        3 bytes
  1094 ;; Hardware stack levels used:    1
  1095 ;; Hardware stack levels required when called:    8
  1096 ;; This function calls:
  1097 ;;		_I2C1_Close
  1098 ;;		_I2C1_MasterWrite
  1099 ;;		_I2C1_Open
  1100 ;;		_I2C1_SetAddressNackCallback
  1101 ;;		_I2C1_SetBuffer
  1102 ;;		_I2C1_SetDataCompleteCallback
  1103 ;; This function is called by:
  1104 ;;		_rtcc_write
  1105 ;;		_rtc6_EEPRWriteLatchEnable
  1106 ;;		_rtc6_EEPRWriteLatchDisable
  1107 ;;		_rtc6_WriteByteEEPROM
  1108 ;; This function uses a non-reentrant model
  1109 ;;
  1110                           
  1111                           	psect	text7
  1112  001364                     __ptext7:
  1113                           	callstack 0
  1114  001364                     _i2c_write1ByteRegister:
  1115                           	callstack 19
  1116                           
  1117                           ;incstack = 0
  1118                           ;i2c_write1ByteRegister@address stored from wreg
  1119  001364  6E52               	movwf	i2c_write1ByteRegister@address^0,c
  1120  001366                     l3240:
  1121  001366  5052               	movf	i2c_write1ByteRegister@address^0,w,c
  1122  001368  ECA4  F008         	call	_I2C1_Open
  1123  00136C  0900               	iorlw	0
  1124  00136E  B4D8               	btfsc	status,2,c
  1125  001370  EFBC  F009         	goto	u811
  1126  001374  EFBE  F009         	goto	u810
  1127  001378                     u811:
  1128  001378  EFB3  F009         	goto	l3240
  1129  00137C                     u810:
  1130  00137C                     
  1131                           ;mcc_generated_files/drivers/i2c_simple_master.c: 54:     I2C1_SetDataCompleteCallback(w
      +                          r1RegCompleteHandler,&data);
  1132  00137C  0E1E               	movlw	low _wr1RegCompleteHandler
  1133  00137E  6E45               	movwf	I2C1_SetDataCompleteCallback@cb^0,c
  1134  001380  0E17               	movlw	high _wr1RegCompleteHandler
  1135  001382  6E46               	movwf	(I2C1_SetDataCompleteCallback@cb+1)^0,c
  1136  001384  0E00               	movlw	low (_wr1RegCompleteHandler shr (0+16))
  1137  001386  6E47               	movwf	(I2C1_SetDataCompleteCallback@cb+2)^0,c
  1138  001388  0E51               	movlw	low i2c_write1ByteRegister@data
  1139  00138A  6E48               	movwf	I2C1_SetDataCompleteCallback@ptr^0,c
  1140  00138C  0E00               	movlw	high i2c_write1ByteRegister@data
  1141  00138E  6E49               	movwf	(I2C1_SetDataCompleteCallback@ptr+1)^0,c
  1142  001390  EC23  F00C         	call	_I2C1_SetDataCompleteCallback	;wreg free
  1143  001394                     
  1144                           ;mcc_generated_files/drivers/i2c_simple_master.c: 55:     I2C1_SetBuffer(&reg,1);
  1145  001394  0E50               	movlw	low i2c_write1ByteRegister@reg
  1146  001396  6E3F               	movwf	I2C1_SetBuffer@buffer^0,c
  1147  001398  0E00               	movlw	high i2c_write1ByteRegister@reg
  1148  00139A  6E40               	movwf	(I2C1_SetBuffer@buffer+1)^0,c
  1149  00139C  0E00               	movlw	0
  1150  00139E  6E42               	movwf	(I2C1_SetBuffer@bufferSize+1)^0,c
  1151  0013A0  0E01               	movlw	1
  1152  0013A2  6E41               	movwf	I2C1_SetBuffer@bufferSize^0,c
  1153  0013A4  ECF6  F00B         	call	_I2C1_SetBuffer	;wreg free
  1154  0013A8                     
  1155                           ;mcc_generated_files/drivers/i2c_simple_master.c: 56:     I2C1_SetAddressNackCallback(((
      +                          void*)0),((void*)0));
  1156  0013A8  0E00               	movlw	0
  1157  0013AA  6E45               	movwf	I2C1_SetAddressNackCallback@cb^0,c
  1158  0013AC  0E00               	movlw	0
  1159  0013AE  6E46               	movwf	(I2C1_SetAddressNackCallback@cb+1)^0,c
  1160  0013B0  0E00               	movlw	0
  1161  0013B2  6E47               	movwf	(I2C1_SetAddressNackCallback@cb+2)^0,c
  1162  0013B4  0E00               	movlw	0
  1163  0013B6  6E48               	movwf	I2C1_SetAddressNackCallback@ptr^0,c
  1164  0013B8  0E00               	movlw	0
  1165  0013BA  6E49               	movwf	(I2C1_SetAddressNackCallback@ptr+1)^0,c
  1166  0013BC  EC07  F00C         	call	_I2C1_SetAddressNackCallback	;wreg free
  1167  0013C0                     
  1168                           ;mcc_generated_files/drivers/i2c_simple_master.c: 57:     I2C1_MasterWrite();
  1169  0013C0  ECAF  F00C         	call	_I2C1_MasterWrite	;wreg free
  1170  0013C4                     l3250:
  1171  0013C4  ECBF  F00B         	call	_I2C1_Close	;wreg free
  1172  0013C8  06E8               	decf	wreg,f,c
  1173  0013CA  B4D8               	btfsc	status,2,c
  1174  0013CC  EFEA  F009         	goto	u821
  1175  0013D0  EFEC  F009         	goto	u820
  1176  0013D4                     u821:
  1177  0013D4  EFE2  F009         	goto	l3250
  1178  0013D8                     u820:
  1179  0013D8  0012               	return		;funcret
  1180  0013DA                     __end_of_i2c_write1ByteRegister:
  1181                           	callstack 0
  1182                           
  1183 ;; *************** function _rtcc_read *****************
  1184 ;; Defined at:
  1185 ;;		line 102 in file "mcc_generated_files/RTC6.c"
  1186 ;; Parameters:    Size  Location     Type
  1187 ;;  addr            1    wreg     unsigned char 
  1188 ;; Auto vars:     Size  Location     Type
  1189 ;;  addr            1   23[COMRAM] unsigned char 
  1190 ;; Return value:  Size  Location     Type
  1191 ;;                  1    wreg      unsigned char 
  1192 ;; Registers used:
  1193 ;;		wreg, fsr2l, fsr2h, status,2, status,0, pclath, tosl, tblptrl, tblptrh, tblptru, prodl, prodh, cstack
  1194 ;; Tracked objects:
  1195 ;;		On entry : 0/0
  1196 ;;		On exit  : 0/0
  1197 ;;		Unchanged: 0/0
  1198 ;; Data sizes:     COMRAM   BANK0   BANK1   BANK2   BANK3   BANK4   BANK5   BANK6   BANK7   BANK8   BANK9  BANK10  BANK1
      +1  BANK12  BANK13
  1199 ;;      Params:         0       0       0       0       0       0       0       0       0       0       0       0       
      +0       0       0
  1200 ;;      Locals:         1       0       0       0       0       0       0       0       0       0       0       0       
      +0       0       0
  1201 ;;      Temps:          0       0       0       0       0       0       0       0       0       0       0       0       
      +0       0       0
  1202 ;;      Totals:         1       0       0       0       0       0       0       0       0       0       0       0       
      +0       0       0
  1203 ;;Total ram usage:        1 bytes
  1204 ;; Hardware stack levels used:    1
  1205 ;; Hardware stack levels required when called:    9
  1206 ;; This function calls:
  1207 ;;		_i2c_read1ByteRegister
  1208 ;; This function is called by:
  1209 ;;		_rtc6_Initialize
  1210 ;;		_rtc6_EnableAlarms
  1211 ;;		_rtc6_SetComponent
  1212 ;;		_rtc6_GetComponent
  1213 ;;		_rtc6_ClearAlarm0
  1214 ;;		_rtc6_ClearAlarm1
  1215 ;; This function uses a non-reentrant model
  1216 ;;
  1217                           
  1218                           	psect	text8
  1219  001916                     __ptext8:
  1220                           	callstack 0
  1221  001916                     _rtcc_read:
  1222                           	callstack 19
  1223                           
  1224                           ;incstack = 0
  1225                           ;rtcc_read@addr stored from wreg
  1226  001916  6E56               	movwf	rtcc_read@addr^0,c
  1227  001918                     
  1228                           ;mcc_generated_files/RTC6.c: 103:     return i2c_read1ByteRegister(0x6F, addr);
  1229  001918  C056  F050         	movff	rtcc_read@addr,i2c_read1ByteRegister@reg
  1230  00191C  0E6F               	movlw	111
  1231  00191E  ECF8  F007         	call	_i2c_read1ByteRegister
  1232  001922  0012               	return		;funcret
  1233  001924                     __end_of_rtcc_read:
  1234                           	callstack 0
  1235                           
  1236 ;; *************** function _i2c_read1ByteRegister *****************
  1237 ;; Defined at:
  1238 ;;		line 97 in file "mcc_generated_files/drivers/i2c_simple_master.c"
  1239 ;; Parameters:    Size  Location     Type
  1240 ;;  address         1    wreg     unsigned char 
  1241 ;;  reg             1   17[COMRAM] unsigned char 
  1242 ;; Auto vars:     Size  Location     Type
  1243 ;;  address         1   18[COMRAM] unsigned char 
  1244 ;;  x               2   20[COMRAM] int 
  1245 ;;  d2              1   22[COMRAM] unsigned char 
  1246 ;;  e               1   19[COMRAM] enum E355
  1247 ;; Return value:  Size  Location     Type
  1248 ;;                  1    wreg      unsigned char 
  1249 ;; Registers used:
  1250 ;;		wreg, fsr2l, fsr2h, status,2, status,0, pclath, tosl, tblptrl, tblptrh, tblptru, prodl, prodh, cstack
  1251 ;; Tracked objects:
  1252 ;;		On entry : 0/0
  1253 ;;		On exit  : 0/0
  1254 ;;		Unchanged: 0/0
  1255 ;; Data sizes:     COMRAM   BANK0   BANK1   BANK2   BANK3   BANK4   BANK5   BANK6   BANK7   BANK8   BANK9  BANK10  BANK1
      +1  BANK12  BANK13
  1256 ;;      Params:         1       0       0       0       0       0       0       0       0       0       0       0       
      +0       0       0
  1257 ;;      Locals:         5       0       0       0       0       0       0       0       0       0       0       0       
      +0       0       0
  1258 ;;      Temps:          0       0       0       0       0       0       0       0       0       0       0       0       
      +0       0       0
  1259 ;;      Totals:         6       0       0       0       0       0       0       0       0       0       0       0       
      +0       0       0
  1260 ;;Total ram usage:        6 bytes
  1261 ;; Hardware stack levels used:    1
  1262 ;; Hardware stack levels required when called:    8
  1263 ;; This function calls:
  1264 ;;		_I2C1_Close
  1265 ;;		_I2C1_MasterWrite
  1266 ;;		_I2C1_Open
  1267 ;;		_I2C1_SetAddressNackCallback
  1268 ;;		_I2C1_SetBuffer
  1269 ;;		_I2C1_SetDataCompleteCallback
  1270 ;; This function is called by:
  1271 ;;		_rtcc_read
  1272 ;;		_rtc6_EEPRReadStatusRegister
  1273 ;;		_rtc6_ReadByteEEPROM
  1274 ;; This function uses a non-reentrant model
  1275 ;;
  1276                           
  1277                           	psect	text9
  1278  000FF0                     __ptext9:
  1279                           	callstack 0
  1280  000FF0                     _i2c_read1ByteRegister:
  1281                           	callstack 19
  1282                           
  1283                           ;incstack = 0
  1284                           ;i2c_read1ByteRegister@address stored from wreg
  1285  000FF0  6E51               	movwf	i2c_read1ByteRegister@address^0,c
  1286  000FF2                     
  1287                           ;mcc_generated_files/drivers/i2c_simple_master.c: 97: uint8_t i2c_read1ByteRegister(i2c1
      +                          _address_t address, uint8_t reg);mcc_generated_files/drivers/i2c_simple_master.c: 98: {;
      +                          mcc_generated_files/drivers/i2c_simple_master.c: 99:     uint8_t d2=42;
  1288  000FF2  0E2A               	movlw	42
  1289  000FF4  6E55               	movwf	i2c_read1ByteRegister@d2^0,c
  1290                           
  1291                           ;mcc_generated_files/drivers/i2c_simple_master.c: 100:     i2c1_error_t e;;mcc_generated
      +                          _files/drivers/i2c_simple_master.c: 101:     int x;;mcc_generated_files/drivers/i2c_simp
      +                          le_master.c: 103:     for(x = 2; x != 0; x--)
  1292  000FF6  0E00               	movlw	0
  1293  000FF8  6E54               	movwf	(i2c_read1ByteRegister@x+1)^0,c
  1294  000FFA  0E02               	movlw	2
  1295  000FFC  6E53               	movwf	i2c_read1ByteRegister@x^0,c
  1296  000FFE                     l3258:
  1297  000FFE  5051               	movf	i2c_read1ByteRegister@address^0,w,c
  1298  001000  ECA4  F008         	call	_I2C1_Open
  1299  001004  0900               	iorlw	0
  1300  001006  B4D8               	btfsc	status,2,c
  1301  001008  EF08  F008         	goto	u831
  1302  00100C  EF0A  F008         	goto	u830
  1303  001010                     u831:
  1304  001010  EFFF  F007         	goto	l3258
  1305  001014                     u830:
  1306  001014                     
  1307                           ;mcc_generated_files/drivers/i2c_simple_master.c: 106:         I2C1_SetDataCompleteCallb
      +                          ack(rd1RegCompleteHandler,&d2);
  1308  001014  0EEE               	movlw	low _rd1RegCompleteHandler
  1309  001016  6E45               	movwf	I2C1_SetDataCompleteCallback@cb^0,c
  1310  001018  0E16               	movlw	high _rd1RegCompleteHandler
  1311  00101A  6E46               	movwf	(I2C1_SetDataCompleteCallback@cb+1)^0,c
  1312  00101C  0E00               	movlw	low (_rd1RegCompleteHandler shr (0+16))
  1313  00101E  6E47               	movwf	(I2C1_SetDataCompleteCallback@cb+2)^0,c
  1314  001020  0E55               	movlw	low i2c_read1ByteRegister@d2
  1315  001022  6E48               	movwf	I2C1_SetDataCompleteCallback@ptr^0,c
  1316  001024  0E00               	movlw	high i2c_read1ByteRegister@d2
  1317  001026  6E49               	movwf	(I2C1_SetDataCompleteCallback@ptr+1)^0,c
  1318  001028  EC23  F00C         	call	_I2C1_SetDataCompleteCallback	;wreg free
  1319  00102C                     
  1320                           ;mcc_generated_files/drivers/i2c_simple_master.c: 107:         I2C1_SetBuffer(&reg,1);
  1321  00102C  0E50               	movlw	low i2c_read1ByteRegister@reg
  1322  00102E  6E3F               	movwf	I2C1_SetBuffer@buffer^0,c
  1323  001030  0E00               	movlw	high i2c_read1ByteRegister@reg
  1324  001032  6E40               	movwf	(I2C1_SetBuffer@buffer+1)^0,c
  1325  001034  0E00               	movlw	0
  1326  001036  6E42               	movwf	(I2C1_SetBuffer@bufferSize+1)^0,c
  1327  001038  0E01               	movlw	1
  1328  00103A  6E41               	movwf	I2C1_SetBuffer@bufferSize^0,c
  1329  00103C  ECF6  F00B         	call	_I2C1_SetBuffer	;wreg free
  1330  001040                     
  1331                           ;mcc_generated_files/drivers/i2c_simple_master.c: 108:         I2C1_SetAddressNackCallba
      +                          ck(((void*)0),((void*)0));
  1332  001040  0E00               	movlw	0
  1333  001042  6E45               	movwf	I2C1_SetAddressNackCallback@cb^0,c
  1334  001044  0E00               	movlw	0
  1335  001046  6E46               	movwf	(I2C1_SetAddressNackCallback@cb+1)^0,c
  1336  001048  0E00               	movlw	0
  1337  00104A  6E47               	movwf	(I2C1_SetAddressNackCallback@cb+2)^0,c
  1338  00104C  0E00               	movlw	0
  1339  00104E  6E48               	movwf	I2C1_SetAddressNackCallback@ptr^0,c
  1340  001050  0E00               	movlw	0
  1341  001052  6E49               	movwf	(I2C1_SetAddressNackCallback@ptr+1)^0,c
  1342  001054  EC07  F00C         	call	_I2C1_SetAddressNackCallback	;wreg free
  1343  001058                     
  1344                           ;mcc_generated_files/drivers/i2c_simple_master.c: 109:         I2C1_MasterWrite();
  1345  001058  ECAF  F00C         	call	_I2C1_MasterWrite	;wreg free
  1346  00105C                     l3268:
  1347  00105C  ECBF  F00B         	call	_I2C1_Close	;wreg free
  1348  001060  6E52               	movwf	i2c_read1ByteRegister@e^0,c
  1349  001062  0452               	decf	i2c_read1ByteRegister@e^0,w,c
  1350  001064  B4D8               	btfsc	status,2,c
  1351  001066  EF37  F008         	goto	u841
  1352  00106A  EF39  F008         	goto	u840
  1353  00106E                     u841:
  1354  00106E  EF2E  F008         	goto	l3268
  1355  001072                     u840:
  1356  001072                     
  1357                           ;mcc_generated_files/drivers/i2c_simple_master.c: 111:         if(e==I2C1_NOERR) break;
  1358  001072  5052               	movf	i2c_read1ByteRegister@e^0,w,c
  1359  001074  A4D8               	btfss	status,2,c
  1360  001076  EF3F  F008         	goto	u851
  1361  00107A  EF41  F008         	goto	u850
  1362  00107E                     u851:
  1363  00107E  EF43  F008         	goto	l3274
  1364  001082                     u850:
  1365  001082  EF4F  F008         	goto	l3278
  1366  001086                     l3274:
  1367                           
  1368                           ;mcc_generated_files/drivers/i2c_simple_master.c: 112:     }
  1369  001086  0653               	decf	i2c_read1ByteRegister@x^0,f,c
  1370  001088  A0D8               	btfss	status,0,c
  1371  00108A  0654               	decf	(i2c_read1ByteRegister@x+1)^0,f,c
  1372  00108C  5053               	movf	i2c_read1ByteRegister@x^0,w,c
  1373  00108E  1054               	iorwf	(i2c_read1ByteRegister@x+1)^0,w,c
  1374  001090  A4D8               	btfss	status,2,c
  1375  001092  EF4D  F008         	goto	u861
  1376  001096  EF4F  F008         	goto	u860
  1377  00109A                     u861:
  1378  00109A  EFFF  F007         	goto	l3258
  1379  00109E                     u860:
  1380  00109E                     l3278:
  1381                           
  1382                           ;mcc_generated_files/drivers/i2c_simple_master.c: 115:     return d2;
  1383  00109E  5055               	movf	i2c_read1ByteRegister@d2^0,w,c
  1384  0010A0  0012               	return		;funcret
  1385  0010A2                     __end_of_i2c_read1ByteRegister:
  1386                           	callstack 0
  1387                           
  1388 ;; *************** function _I2C1_SetAddressNackCallback *****************
  1389 ;; Defined at:
  1390 ;;		line 283 in file "mcc_generated_files/i2c1_master.c"
  1391 ;; Parameters:    Size  Location     Type
  1392 ;;  cb              3    6[COMRAM] PTR FTN(PTR void ,)enum 
  1393 ;;		 -> Absolute function(1), 
  1394 ;;  ptr             2    9[COMRAM] PTR void 
  1395 ;;		 -> NULL(0), 
  1396 ;; Auto vars:     Size  Location     Type
  1397 ;;		None
  1398 ;; Return value:  Size  Location     Type
  1399 ;;                  1    wreg      void 
  1400 ;; Registers used:
  1401 ;;		wreg, fsr2l, fsr2h, status,2, status,0, prodl, prodh, cstack
  1402 ;; Tracked objects:
  1403 ;;		On entry : 0/0
  1404 ;;		On exit  : 0/0
  1405 ;;		Unchanged: 0/0
  1406 ;; Data sizes:     COMRAM   BANK0   BANK1   BANK2   BANK3   BANK4   BANK5   BANK6   BANK7   BANK8   BANK9  BANK10  BANK1
      +1  BANK12  BANK13
  1407 ;;      Params:         5       0       0       0       0       0       0       0       0       0       0       0       
      +0       0       0
  1408 ;;      Locals:         0       0       0       0       0       0       0       0       0       0       0       0       
      +0       0       0
  1409 ;;      Temps:          0       0       0       0       0       0       0       0       0       0       0       0       
      +0       0       0
  1410 ;;      Totals:         5       0       0       0       0       0       0       0       0       0       0       0       
      +0       0       0
  1411 ;;Total ram usage:        5 bytes
  1412 ;; Hardware stack levels used:    1
  1413 ;; Hardware stack levels required when called:    1
  1414 ;; This function calls:
  1415 ;;		_I2C1_SetCallback
  1416 ;; This function is called by:
  1417 ;;		_i2c_write1ByteRegister
  1418 ;;		_i2c_read1ByteRegister
  1419 ;;		_i2c_writeNBytes
  1420 ;;		_i2c_read2ByteRegister
  1421 ;;		_i2c_write2ByteRegister
  1422 ;;		_i2c_readDataBlock
  1423 ;;		_I2C1_Read1ByteRegister
  1424 ;;		_I2C1_Read2ByteRegister
  1425 ;;		_I2C1_Write1ByteRegister
  1426 ;;		_I2C1_Write2ByteRegister
  1427 ;;		_I2C1_WriteNBytes
  1428 ;;		_I2C1_ReadDataBlock
  1429 ;; This function uses a non-reentrant model
  1430 ;;
  1431                           
  1432                           	psect	text10
  1433  00180E                     __ptext10:
  1434                           	callstack 0
  1435  00180E                     _I2C1_SetAddressNackCallback:
  1436                           	callstack 25
  1437  00180E                     
  1438                           ;mcc_generated_files/i2c1_master.c: 283: void I2C1_SetAddressNackCallback(i2c1_callback_
      +                          t cb, void *ptr);mcc_generated_files/i2c1_master.c: 284: {;mcc_generated_files/i2c1_mast
      +                          er.c: 285:     I2C1_SetCallback(I2C1_ADDR_NACK, cb, ptr);
  1439  00180E  C045  F03F         	movff	I2C1_SetAddressNackCallback@cb,I2C1_SetCallback@cb
  1440  001812  C046  F040         	movff	I2C1_SetAddressNackCallback@cb+1,I2C1_SetCallback@cb+1
  1441  001816  C047  F041         	movff	I2C1_SetAddressNackCallback@cb+2,I2C1_SetCallback@cb+2
  1442  00181A  C048  F042         	movff	I2C1_SetAddressNackCallback@ptr,I2C1_SetCallback@ptr
  1443  00181E  C049  F043         	movff	I2C1_SetAddressNackCallback@ptr+1,I2C1_SetCallback@ptr+1
  1444  001822  0E02               	movlw	2
  1445  001824  ECF4  F008         	call	_I2C1_SetCallback
  1446  001828  0012               	return		;funcret
  1447  00182A                     __end_of_I2C1_SetAddressNackCallback:
  1448                           	callstack 0
  1449                           
  1450 ;; *************** function _I2C1_Open *****************
  1451 ;; Defined at:
  1452 ;;		line 176 in file "mcc_generated_files/i2c1_master.c"
  1453 ;; Parameters:    Size  Location     Type
  1454 ;;  address         1    wreg     unsigned char 
  1455 ;; Auto vars:     Size  Location     Type
  1456 ;;  address         1    0[COMRAM] unsigned char 
  1457 ;;  returnValue     1    1[COMRAM] enum E355
  1458 ;; Return value:  Size  Location     Type
  1459 ;;                  1    wreg      enum E355
  1460 ;; Registers used:
  1461 ;;		wreg, status,2, status,0, cstack
  1462 ;; Tracked objects:
  1463 ;;		On entry : 0/0
  1464 ;;		On exit  : 0/0
  1465 ;;		Unchanged: 0/0
  1466 ;; Data sizes:     COMRAM   BANK0   BANK1   BANK2   BANK3   BANK4   BANK5   BANK6   BANK7   BANK8   BANK9  BANK10  BANK1
      +1  BANK12  BANK13
  1467 ;;      Params:         0       0       0       0       0       0       0       0       0       0       0       0       
      +0       0       0
  1468 ;;      Locals:         2       0       0       0       0       0       0       0       0       0       0       0       
      +0       0       0
  1469 ;;      Temps:          0       0       0       0       0       0       0       0       0       0       0       0       
      +0       0       0
  1470 ;;      Totals:         2       0       0       0       0       0       0       0       0       0       0       0       
      +0       0       0
  1471 ;;Total ram usage:        2 bytes
  1472 ;; Hardware stack levels used:    1
  1473 ;; Hardware stack levels required when called:    1
  1474 ;; This function calls:
  1475 ;;		_I2C1_MasterClearIrq
  1476 ;;		_I2C1_MasterOpen
  1477 ;; This function is called by:
  1478 ;;		_i2c_write1ByteRegister
  1479 ;;		_i2c_read1ByteRegister
  1480 ;;		_i2c_writeNBytes
  1481 ;;		_i2c_read2ByteRegister
  1482 ;;		_i2c_write2ByteRegister
  1483 ;;		_i2c_readDataBlock
  1484 ;;		_i2c_readNBytes
  1485 ;;		_I2C1_Read1ByteRegister
  1486 ;;		_I2C1_Read2ByteRegister
  1487 ;;		_I2C1_Write1ByteRegister
  1488 ;;		_I2C1_Write2ByteRegister
  1489 ;;		_I2C1_WriteNBytes
  1490 ;;		_I2C1_ReadNBytes
  1491 ;;		_I2C1_ReadDataBlock
  1492 ;; This function uses a non-reentrant model
  1493 ;;
  1494                           
  1495                           	psect	text11
  1496  001148                     __ptext11:
  1497                           	callstack 0
  1498  001148                     _I2C1_Open:
  1499                           	callstack 25
  1500                           
  1501                           ;incstack = 0
  1502                           ;I2C1_Open@address stored from wreg
  1503  001148  6E3F               	movwf	I2C1_Open@address^0,c
  1504  00114A                     
  1505                           ;mcc_generated_files/i2c1_master.c: 176: i2c1_error_t I2C1_Open(i2c1_address_t address);
      +                          mcc_generated_files/i2c1_master.c: 177: {;mcc_generated_files/i2c1_master.c: 178:     i2
      +                          c1_error_t returnValue = I2C1_BUSY;
  1506  00114A  0E01               	movlw	1
  1507  00114C  6E40               	movwf	I2C1_Open@returnValue^0,c
  1508  00114E                     
  1509                           ;mcc_generated_files/i2c1_master.c: 180:     if(!I2C1_Status.inUse)
  1510  00114E  B42A               	btfsc	(_I2C1_Status+41)^0,2,c
  1511  001150  EFAC  F008         	goto	u781
  1512  001154  EFAE  F008         	goto	u780
  1513  001158                     u781:
  1514  001158  EFF2  F008         	goto	l3206
  1515  00115C                     u780:
  1516  00115C                     
  1517                           ;mcc_generated_files/i2c1_master.c: 181:     {;mcc_generated_files/i2c1_master.c: 182:  
      +                                 I2C1_Status.address = address;
  1518  00115C  C03F  F023         	movff	I2C1_Open@address,_I2C1_Status+34
  1519  001160                     
  1520                           ;mcc_generated_files/i2c1_master.c: 183:         I2C1_Status.busy = 0;
  1521  001160  922A               	bcf	(_I2C1_Status+41)^0,1,c
  1522  001162                     
  1523                           ;mcc_generated_files/i2c1_master.c: 184:         I2C1_Status.inUse = 1;
  1524  001162  842A               	bsf	(_I2C1_Status+41)^0,2,c
  1525  001164                     
  1526                           ;mcc_generated_files/i2c1_master.c: 185:         I2C1_Status.addressNackCheck = 0;
  1527  001164  902A               	bcf	(_I2C1_Status+41)^0,0,c
  1528  001166                     
  1529                           ;mcc_generated_files/i2c1_master.c: 186:         I2C1_Status.state = I2C1_RESET;
  1530  001166  0E0E               	movlw	14
  1531  001168  6E28               	movwf	(_I2C1_Status+39)^0,c
  1532  00116A                     
  1533                           ;mcc_generated_files/i2c1_master.c: 187:         I2C1_Status.time_out_value = 500;
  1534  00116A  0E01               	movlw	1
  1535  00116C  6E22               	movwf	(_I2C1_Status+33)^0,c
  1536  00116E  0EF4               	movlw	244
  1537  001170  6E21               	movwf	(_I2C1_Status+32)^0,c
  1538  001172                     
  1539                           ;mcc_generated_files/i2c1_master.c: 188:         I2C1_Status.bufferFree = 1;
  1540  001172  862A               	bsf	(_I2C1_Status+41)^0,3,c
  1541  001174                     
  1542                           ;mcc_generated_files/i2c1_master.c: 191:         I2C1_Status.callbackTable[I2C1_DATA_COM
      +                          PLETE]=I2C1_CallbackReturnStop;
  1543  001174  0EDC               	movlw	low _I2C1_CallbackReturnStop
  1544  001176  6E01               	movwf	_I2C1_Status^0,c
  1545  001178  0E19               	movlw	high _I2C1_CallbackReturnStop
  1546  00117A  6E02               	movwf	(_I2C1_Status+1)^0,c
  1547  00117C  0E00               	movlw	low (_I2C1_CallbackReturnStop shr (0+16))
  1548  00117E  6E03               	movwf	(_I2C1_Status+2)^0,c
  1549  001180                     
  1550                           ;mcc_generated_files/i2c1_master.c: 192:         I2C1_Status.callbackPayload[I2C1_DATA_C
      +                          OMPLETE] = ((void*)0);
  1551  001180  0E00               	movlw	0
  1552  001182  6E13               	movwf	(_I2C1_Status+18)^0,c
  1553  001184  0E00               	movlw	0
  1554  001186  6E14               	movwf	(_I2C1_Status+19)^0,c
  1555  001188                     
  1556                           ;mcc_generated_files/i2c1_master.c: 193:         I2C1_Status.callbackTable[I2C1_WRITE_CO
      +                          LLISION]=I2C1_CallbackReturnStop;
  1557  001188  0EDC               	movlw	low _I2C1_CallbackReturnStop
  1558  00118A  6E04               	movwf	(_I2C1_Status+3)^0,c
  1559  00118C  0E19               	movlw	high _I2C1_CallbackReturnStop
  1560  00118E  6E05               	movwf	(_I2C1_Status+4)^0,c
  1561  001190  0E00               	movlw	low (_I2C1_CallbackReturnStop shr (0+16))
  1562  001192  6E06               	movwf	(_I2C1_Status+5)^0,c
  1563  001194                     
  1564                           ;mcc_generated_files/i2c1_master.c: 194:         I2C1_Status.callbackPayload[I2C1_WRITE_
      +                          COLLISION] = ((void*)0);
  1565  001194  0E00               	movlw	0
  1566  001196  6E15               	movwf	(_I2C1_Status+20)^0,c
  1567  001198  0E00               	movlw	0
  1568  00119A  6E16               	movwf	(_I2C1_Status+21)^0,c
  1569  00119C                     
  1570                           ;mcc_generated_files/i2c1_master.c: 195:         I2C1_Status.callbackTable[I2C1_ADDR_NAC
      +                          K]=I2C1_CallbackReturnStop;
  1571  00119C  0EDC               	movlw	low _I2C1_CallbackReturnStop
  1572  00119E  6E07               	movwf	(_I2C1_Status+6)^0,c
  1573  0011A0  0E19               	movlw	high _I2C1_CallbackReturnStop
  1574  0011A2  6E08               	movwf	(_I2C1_Status+7)^0,c
  1575  0011A4  0E00               	movlw	low (_I2C1_CallbackReturnStop shr (0+16))
  1576  0011A6  6E09               	movwf	(_I2C1_Status+8)^0,c
  1577  0011A8                     
  1578                           ;mcc_generated_files/i2c1_master.c: 196:         I2C1_Status.callbackPayload[I2C1_ADDR_N
      +                          ACK] = ((void*)0);
  1579  0011A8  0E00               	movlw	0
  1580  0011AA  6E17               	movwf	(_I2C1_Status+22)^0,c
  1581  0011AC  0E00               	movlw	0
  1582  0011AE  6E18               	movwf	(_I2C1_Status+23)^0,c
  1583  0011B0                     
  1584                           ;mcc_generated_files/i2c1_master.c: 197:         I2C1_Status.callbackTable[I2C1_DATA_NAC
      +                          K]=I2C1_CallbackReturnStop;
  1585  0011B0  0EDC               	movlw	low _I2C1_CallbackReturnStop
  1586  0011B2  6E0A               	movwf	(_I2C1_Status+9)^0,c
  1587  0011B4  0E19               	movlw	high _I2C1_CallbackReturnStop
  1588  0011B6  6E0B               	movwf	(_I2C1_Status+10)^0,c
  1589  0011B8  0E00               	movlw	low (_I2C1_CallbackReturnStop shr (0+16))
  1590  0011BA  6E0C               	movwf	(_I2C1_Status+11)^0,c
  1591  0011BC                     
  1592                           ;mcc_generated_files/i2c1_master.c: 198:         I2C1_Status.callbackPayload[I2C1_DATA_N
      +                          ACK] = ((void*)0);
  1593  0011BC  0E00               	movlw	0
  1594  0011BE  6E19               	movwf	(_I2C1_Status+24)^0,c
  1595  0011C0  0E00               	movlw	0
  1596  0011C2  6E1A               	movwf	(_I2C1_Status+25)^0,c
  1597  0011C4                     
  1598                           ;mcc_generated_files/i2c1_master.c: 199:         I2C1_Status.callbackTable[I2C1_TIMEOUT]
      +                          =I2C1_CallbackReturnReset;
  1599  0011C4  0ED8               	movlw	low _I2C1_CallbackReturnReset
  1600  0011C6  6E0D               	movwf	(_I2C1_Status+12)^0,c
  1601  0011C8  0E19               	movlw	high _I2C1_CallbackReturnReset
  1602  0011CA  6E0E               	movwf	(_I2C1_Status+13)^0,c
  1603  0011CC  0E00               	movlw	low (_I2C1_CallbackReturnReset shr (0+16))
  1604  0011CE  6E0F               	movwf	(_I2C1_Status+14)^0,c
  1605  0011D0                     
  1606                           ;mcc_generated_files/i2c1_master.c: 200:         I2C1_Status.callbackPayload[I2C1_TIMEOU
      +                          T] = ((void*)0);
  1607  0011D0  0E00               	movlw	0
  1608  0011D2  6E1B               	movwf	(_I2C1_Status+26)^0,c
  1609  0011D4  0E00               	movlw	0
  1610  0011D6  6E1C               	movwf	(_I2C1_Status+27)^0,c
  1611  0011D8                     
  1612                           ;mcc_generated_files/i2c1_master.c: 202:         I2C1_MasterClearIrq();
  1613  0011D8  ECDF  F00C         	call	_I2C1_MasterClearIrq	;wreg free
  1614  0011DC                     
  1615                           ;mcc_generated_files/i2c1_master.c: 203:         I2C1_MasterOpen();
  1616  0011DC  ECE5  F00B         	call	_I2C1_MasterOpen	;wreg free
  1617  0011E0                     
  1618                           ;mcc_generated_files/i2c1_master.c: 204:         returnValue = I2C1_NOERR;
  1619  0011E0  0E00               	movlw	0
  1620  0011E2  6E40               	movwf	I2C1_Open@returnValue^0,c
  1621  0011E4                     l3206:
  1622                           
  1623                           ;mcc_generated_files/i2c1_master.c: 206:     return returnValue;
  1624  0011E4  5040               	movf	I2C1_Open@returnValue^0,w,c
  1625  0011E6  0012               	return		;funcret
  1626  0011E8                     __end_of_I2C1_Open:
  1627                           	callstack 0
  1628                           
  1629 ;; *************** function _I2C1_MasterOpen *****************
  1630 ;; Defined at:
  1631 ;;		line 543 in file "mcc_generated_files/i2c1_master.c"
  1632 ;; Parameters:    Size  Location     Type
  1633 ;;		None
  1634 ;; Auto vars:     Size  Location     Type
  1635 ;;		None
  1636 ;; Return value:  Size  Location     Type
  1637 ;;                  1    wreg      _Bool 
  1638 ;; Registers used:
  1639 ;;		wreg, status,2
  1640 ;; Tracked objects:
  1641 ;;		On entry : 0/0
  1642 ;;		On exit  : 0/0
  1643 ;;		Unchanged: 0/0
  1644 ;; Data sizes:     COMRAM   BANK0   BANK1   BANK2   BANK3   BANK4   BANK5   BANK6   BANK7   BANK8   BANK9  BANK10  BANK1
      +1  BANK12  BANK13
  1645 ;;      Params:         0       0       0       0       0       0       0       0       0       0       0       0       
      +0       0       0
  1646 ;;      Locals:         0       0       0       0       0       0       0       0       0       0       0       0       
      +0       0       0
  1647 ;;      Temps:          0       0       0       0       0       0       0       0       0       0       0       0       
      +0       0       0
  1648 ;;      Totals:         0       0       0       0       0       0       0       0       0       0       0       0       
      +0       0       0
  1649 ;;Total ram usage:        0 bytes
  1650 ;; Hardware stack levels used:    1
  1651 ;; This function calls:
  1652 ;;		Nothing
  1653 ;; This function is called by:
  1654 ;;		_I2C1_Open
  1655 ;; This function uses a non-reentrant model
  1656 ;;
  1657                           
  1658                           	psect	text12
  1659  0017CA                     __ptext12:
  1660                           	callstack 0
  1661  0017CA                     _I2C1_MasterOpen:
  1662                           	callstack 25
  1663  0017CA                     
  1664                           ;mcc_generated_files/i2c1_master.c: 545:     if(!SSP1CON1bits.SSPEN)
  1665  0017CA  BA95               	btfsc	149,5,c	;volatile
  1666  0017CC  EFEA  F00B         	goto	u751
  1667  0017D0  EFEC  F00B         	goto	u750
  1668  0017D4                     u751:
  1669  0017D4  EFF5  F00B         	goto	l669
  1670  0017D8                     u750:
  1671  0017D8                     
  1672                           ;mcc_generated_files/i2c1_master.c: 546:     {;mcc_generated_files/i2c1_master.c: 547:  
      +                                 SSP1STAT = 0x00;
  1673  0017D8  0E00               	movlw	0
  1674  0017DA  6E94               	movwf	148,c	;volatile
  1675                           
  1676                           ;mcc_generated_files/i2c1_master.c: 548:         SSP1CON1 = 0x08;
  1677  0017DC  0E08               	movlw	8
  1678  0017DE  6E95               	movwf	149,c	;volatile
  1679                           
  1680                           ;mcc_generated_files/i2c1_master.c: 549:         SSP1CON2 = 0x00;
  1681  0017E0  0E00               	movlw	0
  1682  0017E2  6E96               	movwf	150,c	;volatile
  1683                           
  1684                           ;mcc_generated_files/i2c1_master.c: 550:         SSP1ADD = 0x27;
  1685  0017E4  0E27               	movlw	39
  1686  0017E6  6E92               	movwf	146,c	;volatile
  1687  0017E8                     
  1688                           ;mcc_generated_files/i2c1_master.c: 551:         SSP1CON1bits.SSPEN = 1;
  1689  0017E8  8A95               	bsf	149,5,c	;volatile
  1690  0017EA                     l669:
  1691  0017EA  0012               	return		;funcret
  1692  0017EC                     __end_of_I2C1_MasterOpen:
  1693                           	callstack 0
  1694                           
  1695 ;; *************** function _I2C1_MasterWrite *****************
  1696 ;; Defined at:
  1697 ;;		line 251 in file "mcc_generated_files/i2c1_master.c"
  1698 ;; Parameters:    Size  Location     Type
  1699 ;;		None
  1700 ;; Auto vars:     Size  Location     Type
  1701 ;;		None
  1702 ;; Return value:  Size  Location     Type
  1703 ;;                  1    wreg      enum E355
  1704 ;; Registers used:
  1705 ;;		wreg, fsr2l, fsr2h, status,2, status,0, pclath, tosl, tblptrl, tblptrh, tblptru, prodl, prodh, cstack
  1706 ;; Tracked objects:
  1707 ;;		On entry : 0/0
  1708 ;;		On exit  : 0/0
  1709 ;;		Unchanged: 0/0
  1710 ;; Data sizes:     COMRAM   BANK0   BANK1   BANK2   BANK3   BANK4   BANK5   BANK6   BANK7   BANK8   BANK9  BANK10  BANK1
      +1  BANK12  BANK13
  1711 ;;      Params:         0       0       0       0       0       0       0       0       0       0       0       0       
      +0       0       0
  1712 ;;      Locals:         0       0       0       0       0       0       0       0       0       0       0       0       
      +0       0       0
  1713 ;;      Temps:          0       0       0       0       0       0       0       0       0       0       0       0       
      +0       0       0
  1714 ;;      Totals:         0       0       0       0       0       0       0       0       0       0       0       0       
      +0       0       0
  1715 ;;Total ram usage:        0 bytes
  1716 ;; Hardware stack levels used:    1
  1717 ;; Hardware stack levels required when called:    7
  1718 ;; This function calls:
  1719 ;;		_I2C1_MasterOperation
  1720 ;; This function is called by:
  1721 ;;		_i2c_write1ByteRegister
  1722 ;;		_i2c_read1ByteRegister
  1723 ;;		_i2c_writeNBytes
  1724 ;;		_i2c_read2ByteRegister
  1725 ;;		_i2c_write2ByteRegister
  1726 ;;		_i2c_readDataBlock
  1727 ;;		_I2C1_Read1ByteRegister
  1728 ;;		_I2C1_Read2ByteRegister
  1729 ;;		_I2C1_Write1ByteRegister
  1730 ;;		_I2C1_Write2ByteRegister
  1731 ;;		_I2C1_WriteNBytes
  1732 ;;		_I2C1_ReadDataBlock
  1733 ;; This function uses a non-reentrant model
  1734 ;;
  1735                           
  1736                           	psect	text13
  1737  00195E                     __ptext13:
  1738                           	callstack 0
  1739  00195E                     _I2C1_MasterWrite:
  1740                           	callstack 19
  1741  00195E                     
  1742                           ;mcc_generated_files/i2c1_master.c: 253:     return I2C1_MasterOperation(0);;	Return val
      +                          ue of _I2C1_MasterWrite is never used
  1743  00195E  0E00               	movlw	0
  1744  001960  ECBF  F00A         	call	_I2C1_MasterOperation
  1745  001964  0012               	return		;funcret
  1746  001966                     __end_of_I2C1_MasterWrite:
  1747                           	callstack 0
  1748                           
  1749 ;; *************** function _I2C1_MasterOperation *****************
  1750 ;; Defined at:
  1751 ;;		line 224 in file "mcc_generated_files/i2c1_master.c"
  1752 ;; Parameters:    Size  Location     Type
  1753 ;;  read            1    wreg     _Bool 
  1754 ;; Auto vars:     Size  Location     Type
  1755 ;;  read            1   15[COMRAM] _Bool 
  1756 ;;  returnValue     1   16[COMRAM] enum E355
  1757 ;; Return value:  Size  Location     Type
  1758 ;;                  1    wreg      enum E355
  1759 ;; Registers used:
  1760 ;;		wreg, fsr2l, fsr2h, status,2, status,0, pclath, tosl, tblptrl, tblptrh, tblptru, prodl, prodh, cstack
  1761 ;; Tracked objects:
  1762 ;;		On entry : 0/0
  1763 ;;		On exit  : 0/0
  1764 ;;		Unchanged: 0/0
  1765 ;; Data sizes:     COMRAM   BANK0   BANK1   BANK2   BANK3   BANK4   BANK5   BANK6   BANK7   BANK8   BANK9  BANK10  BANK1
      +1  BANK12  BANK13
  1766 ;;      Params:         0       0       0       0       0       0       0       0       0       0       0       0       
      +0       0       0
  1767 ;;      Locals:         2       0       0       0       0       0       0       0       0       0       0       0       
      +0       0       0
  1768 ;;      Temps:          0       0       0       0       0       0       0       0       0       0       0       0       
      +0       0       0
  1769 ;;      Totals:         2       0       0       0       0       0       0       0       0       0       0       0       
      +0       0       0
  1770 ;;Total ram usage:        2 bytes
  1771 ;; Hardware stack levels used:    1
  1772 ;; Hardware stack levels required when called:    6
  1773 ;; This function calls:
  1774 ;;		_I2C1_MasterStart
  1775 ;;		_I2C1_Poller
  1776 ;; This function is called by:
  1777 ;;		_I2C1_MasterWrite
  1778 ;;		_I2C1_MasterRead
  1779 ;; This function uses a non-reentrant model
  1780 ;;
  1781                           
  1782                           	psect	text14
  1783  00157E                     __ptext14:
  1784                           	callstack 0
  1785  00157E                     _I2C1_MasterOperation:
  1786                           	callstack 19
  1787                           
  1788                           ;incstack = 0
  1789                           ;I2C1_MasterOperation@read stored from wreg
  1790  00157E  6E4E               	movwf	I2C1_MasterOperation@read^0,c
  1791  001580                     
  1792                           ;mcc_generated_files/i2c1_master.c: 224: i2c1_error_t I2C1_MasterOperation(_Bool read);m
      +                          cc_generated_files/i2c1_master.c: 225: {;mcc_generated_files/i2c1_master.c: 226:     i2c
      +                          1_error_t returnValue = I2C1_BUSY;
  1793  001580  0E01               	movlw	1
  1794  001582  6E4F               	movwf	I2C1_MasterOperation@returnValue^0,c
  1795  001584                     
  1796                           ;mcc_generated_files/i2c1_master.c: 227:     if(!I2C1_Status.busy)
  1797  001584  B22A               	btfsc	(_I2C1_Status+41)^0,1,c
  1798  001586  EFC7  F00A         	goto	u761
  1799  00158A  EFC9  F00A         	goto	u760
  1800  00158E                     u761:
  1801  00158E  EFDE  F00A         	goto	l3158
  1802  001592                     u760:
  1803  001592                     
  1804                           ;mcc_generated_files/i2c1_master.c: 228:     {;mcc_generated_files/i2c1_master.c: 229:  
      +                                 I2C1_Status.busy = 1;
  1805  001592  822A               	bsf	(_I2C1_Status+41)^0,1,c
  1806  001594                     
  1807                           ;mcc_generated_files/i2c1_master.c: 230:         returnValue = I2C1_NOERR;
  1808  001594  0E00               	movlw	0
  1809  001596  6E4F               	movwf	I2C1_MasterOperation@returnValue^0,c
  1810  001598                     
  1811                           ;mcc_generated_files/i2c1_master.c: 232:         if(read)
  1812  001598  504E               	movf	I2C1_MasterOperation@read^0,w,c
  1813  00159A  B4D8               	btfsc	status,2,c
  1814  00159C  EFD2  F00A         	goto	u771
  1815  0015A0  EFD4  F00A         	goto	u770
  1816  0015A4                     u771:
  1817  0015A4  EFD8  F00A         	goto	l3152
  1818  0015A8                     u770:
  1819  0015A8                     
  1820                           ;mcc_generated_files/i2c1_master.c: 233:         {;mcc_generated_files/i2c1_master.c: 23
      +                          4:             I2C1_Status.state = I2C1_SEND_ADR_READ;
  1821  0015A8  0E01               	movlw	1
  1822  0015AA  6E28               	movwf	(_I2C1_Status+39)^0,c
  1823                           
  1824                           ;mcc_generated_files/i2c1_master.c: 235:         }
  1825  0015AC  EFDA  F00A         	goto	l3154
  1826  0015B0                     l3152:
  1827                           
  1828                           ;mcc_generated_files/i2c1_master.c: 237:         {;mcc_generated_files/i2c1_master.c: 23
      +                          8:             I2C1_Status.state = I2C1_SEND_ADR_WRITE;
  1829  0015B0  0E02               	movlw	2
  1830  0015B2  6E28               	movwf	(_I2C1_Status+39)^0,c
  1831  0015B4                     l3154:
  1832                           
  1833                           ;mcc_generated_files/i2c1_master.c: 240:         I2C1_MasterStart();
  1834  0015B4  ECF4  F00C         	call	_I2C1_MasterStart	;wreg free
  1835  0015B8                     
  1836                           ;mcc_generated_files/i2c1_master.c: 241:         I2C1_Poller();
  1837  0015B8  EC15  F00C         	call	_I2C1_Poller	;wreg free
  1838  0015BC                     l3158:
  1839                           
  1840                           ;mcc_generated_files/i2c1_master.c: 243:     return returnValue;
  1841  0015BC  504F               	movf	I2C1_MasterOperation@returnValue^0,w,c
  1842  0015BE  0012               	return		;funcret
  1843  0015C0                     __end_of_I2C1_MasterOperation:
  1844                           	callstack 0
  1845                           
  1846 ;; *************** function _I2C1_Poller *****************
  1847 ;; Defined at:
  1848 ;;		line 312 in file "mcc_generated_files/i2c1_master.c"
  1849 ;; Parameters:    Size  Location     Type
  1850 ;;		None
  1851 ;; Auto vars:     Size  Location     Type
  1852 ;;		None
  1853 ;; Return value:  Size  Location     Type
  1854 ;;                  1    wreg      void 
  1855 ;; Registers used:
  1856 ;;		wreg, fsr2l, fsr2h, status,2, status,0, pclath, tosl, tblptrl, tblptrh, tblptru, prodl, prodh, cstack
  1857 ;; Tracked objects:
  1858 ;;		On entry : 0/0
  1859 ;;		On exit  : 0/0
  1860 ;;		Unchanged: 0/0
  1861 ;; Data sizes:     COMRAM   BANK0   BANK1   BANK2   BANK3   BANK4   BANK5   BANK6   BANK7   BANK8   BANK9  BANK10  BANK1
      +1  BANK12  BANK13
  1862 ;;      Params:         0       0       0       0       0       0       0       0       0       0       0       0       
      +0       0       0
  1863 ;;      Locals:         0       0       0       0       0       0       0       0       0       0       0       0       
      +0       0       0
  1864 ;;      Temps:          0       0       0       0       0       0       0       0       0       0       0       0       
      +0       0       0
  1865 ;;      Totals:         0       0       0       0       0       0       0       0       0       0       0       0       
      +0       0       0
  1866 ;;Total ram usage:        0 bytes
  1867 ;; Hardware stack levels used:    1
  1868 ;; Hardware stack levels required when called:    5
  1869 ;; This function calls:
  1870 ;;		_I2C1_MasterFsm
  1871 ;;		_I2C1_MasterWaitForEvent
  1872 ;; This function is called by:
  1873 ;;		_I2C1_MasterOperation
  1874 ;; This function uses a non-reentrant model
  1875 ;;
  1876                           
  1877                           	psect	text15
  1878  00182A                     __ptext15:
  1879                           	callstack 0
  1880  00182A                     _I2C1_Poller:
  1881                           	callstack 19
  1882  00182A                     
  1883                           ;mcc_generated_files/i2c1_master.c: 314:     while(I2C1_Status.busy)
  1884  00182A  EF1B  F00C         	goto	l3126
  1885  00182E                     l3122:
  1886                           
  1887                           ;mcc_generated_files/i2c1_master.c: 315:     {;mcc_generated_files/i2c1_master.c: 316:  
      +                                 I2C1_MasterWaitForEvent();
  1888  00182E  EC82  F00C         	call	_I2C1_MasterWaitForEvent	;wreg free
  1889  001832                     
  1890                           ;mcc_generated_files/i2c1_master.c: 317:         I2C1_MasterFsm();
  1891  001832  EC22  F00A         	call	_I2C1_MasterFsm	;wreg free
  1892  001836                     l3126:
  1893                           
  1894                           ;mcc_generated_files/i2c1_master.c: 314:     while(I2C1_Status.busy)
  1895  001836  B22A               	btfsc	(_I2C1_Status+41)^0,1,c
  1896  001838  EF20  F00C         	goto	u741
  1897  00183C  EF22  F00C         	goto	u740
  1898  001840                     u741:
  1899  001840  EF17  F00C         	goto	l3122
  1900  001844                     u740:
  1901  001844  0012               	return		;funcret
  1902  001846                     __end_of_I2C1_Poller:
  1903                           	callstack 0
  1904                           
  1905 ;; *************** function _I2C1_MasterWaitForEvent *****************
  1906 ;; Defined at:
  1907 ;;		line 650 in file "mcc_generated_files/i2c1_master.c"
  1908 ;; Parameters:    Size  Location     Type
  1909 ;;		None
  1910 ;; Auto vars:     Size  Location     Type
  1911 ;;		None
  1912 ;; Return value:  Size  Location     Type
  1913 ;;                  1    wreg      void 
  1914 ;; Registers used:
  1915 ;;		None
  1916 ;; Tracked objects:
  1917 ;;		On entry : 0/0
  1918 ;;		On exit  : 0/0
  1919 ;;		Unchanged: 0/0
  1920 ;; Data sizes:     COMRAM   BANK0   BANK1   BANK2   BANK3   BANK4   BANK5   BANK6   BANK7   BANK8   BANK9  BANK10  BANK1
      +1  BANK12  BANK13
  1921 ;;      Params:         0       0       0       0       0       0       0       0       0       0       0       0       
      +0       0       0
  1922 ;;      Locals:         0       0       0       0       0       0       0       0       0       0       0       0       
      +0       0       0
  1923 ;;      Temps:          0       0       0       0       0       0       0       0       0       0       0       0       
      +0       0       0
  1924 ;;      Totals:         0       0       0       0       0       0       0       0       0       0       0       0       
      +0       0       0
  1925 ;;Total ram usage:        0 bytes
  1926 ;; Hardware stack levels used:    1
  1927 ;; This function calls:
  1928 ;;		Nothing
  1929 ;; This function is called by:
  1930 ;;		_I2C1_Poller
  1931 ;; This function uses a non-reentrant model
  1932 ;;
  1933                           
  1934                           	psect	text16
  1935  001904                     __ptext16:
  1936                           	callstack 0
  1937  001904                     _I2C1_MasterWaitForEvent:
  1938                           	callstack 23
  1939  001904                     l726:
  1940                           
  1941                           ;mcc_generated_files/i2c1_master.c: 653:     {;mcc_generated_files/i2c1_master.c: 654:  
      +                                 if(PIR3bits.SSP1IF)
  1942  001904  010E               	movlb	14	; () banked
  1943  001906  A136               	btfss	54,0,b	;volatile
  1944  001908  EF88  F00C         	goto	u701
  1945  00190C  EF8A  F00C         	goto	u700
  1946  001910                     u701:
  1947  001910  EF82  F00C         	goto	l726
  1948  001914                     u700:
  1949  001914                     
  1950                           ; BSR set to: 14
  1951  001914  0012               	return		;funcret
  1952  001916                     __end_of_I2C1_MasterWaitForEvent:
  1953                           	callstack 0
  1954                           
  1955 ;; *************** function _I2C1_MasterFsm *****************
  1956 ;; Defined at:
  1957 ;;		line 321 in file "mcc_generated_files/i2c1_master.c"
  1958 ;; Parameters:    Size  Location     Type
  1959 ;;		None
  1960 ;; Auto vars:     Size  Location     Type
  1961 ;;		None
  1962 ;; Return value:  Size  Location     Type
  1963 ;;                  1    wreg      void 
  1964 ;; Registers used:
  1965 ;;		wreg, fsr2l, fsr2h, status,2, status,0, pclath, tosl, tblptrl, tblptrh, tblptru, prodl, prodh, cstack
  1966 ;; Tracked objects:
  1967 ;;		On entry : 0/0
  1968 ;;		On exit  : 0/0
  1969 ;;		Unchanged: 0/0
  1970 ;; Data sizes:     COMRAM   BANK0   BANK1   BANK2   BANK3   BANK4   BANK5   BANK6   BANK7   BANK8   BANK9  BANK10  BANK1
      +1  BANK12  BANK13
  1971 ;;      Params:         0       0       0       0       0       0       0       0       0       0       0       0       
      +0       0       0
  1972 ;;      Locals:         0       0       0       0       0       0       0       0       0       0       0       0       
      +0       0       0
  1973 ;;      Temps:          0       0       0       0       0       0       0       0       0       0       0       0       
      +0       0       0
  1974 ;;      Totals:         0       0       0       0       0       0       0       0       0       0       0       0       
      +0       0       0
  1975 ;;Total ram usage:        0 bytes
  1976 ;; Hardware stack levels used:    1
  1977 ;; Hardware stack levels required when called:    4
  1978 ;; This function calls:
  1979 ;;		_I2C1_DO_ADDRESS_NACK
  1980 ;;		_I2C1_DO_IDLE
  1981 ;;		_I2C1_DO_RCEN
  1982 ;;		_I2C1_DO_RESET
  1983 ;;		_I2C1_DO_RX
  1984 ;;		_I2C1_DO_RX_ACK
  1985 ;;		_I2C1_DO_RX_NACK_RESTART
  1986 ;;		_I2C1_DO_RX_NACK_STOP
  1987 ;;		_I2C1_DO_SEND_ADR_READ
  1988 ;;		_I2C1_DO_SEND_ADR_WRITE
  1989 ;;		_I2C1_DO_SEND_RESTART
  1990 ;;		_I2C1_DO_SEND_RESTART_READ
  1991 ;;		_I2C1_DO_SEND_RESTART_WRITE
  1992 ;;		_I2C1_DO_SEND_STOP
  1993 ;;		_I2C1_DO_TX
  1994 ;;		_I2C1_DO_TX_EMPTY
  1995 ;;		_I2C1_MasterClearIrq
  1996 ;;		_I2C1_MasterIsNack
  1997 ;; This function is called by:
  1998 ;;		_I2C1_Poller
  1999 ;; This function uses a non-reentrant model
  2000 ;;
  2001                           
  2002                           	psect	text17
  2003  001444                     __ptext17:
  2004                           	callstack 0
  2005  001444                     _I2C1_MasterFsm:
  2006                           	callstack 19
  2007  001444                     
  2008                           ;mcc_generated_files/i2c1_master.c: 323:     I2C1_MasterClearIrq();
  2009  001444  ECDF  F00C         	call	_I2C1_MasterClearIrq	;wreg free
  2010  001448                     
  2011                           ;mcc_generated_files/i2c1_master.c: 325:     if(I2C1_Status.addressNackCheck && I2C1_Mas
      +                          terIsNack())
  2012  001448  A02A               	btfss	(_I2C1_Status+41)^0,0,c
  2013  00144A  EF29  F00A         	goto	u711
  2014  00144E  EF2B  F00A         	goto	u710
  2015  001452                     u711:
  2016  001452  EF37  F00A         	goto	l3116
  2017  001456                     u710:
  2018  001456  EC6E  F00C         	call	_I2C1_MasterIsNack	;wreg free
  2019  00145A  0900               	iorlw	0
  2020  00145C  B4D8               	btfsc	status,2,c
  2021  00145E  EF33  F00A         	goto	u721
  2022  001462  EF35  F00A         	goto	u720
  2023  001466                     u721:
  2024  001466  EF37  F00A         	goto	l3116
  2025  00146A                     u720:
  2026  00146A                     
  2027                           ;mcc_generated_files/i2c1_master.c: 326:     {;mcc_generated_files/i2c1_master.c: 327:  
      +                                 I2C1_Status.state = I2C1_ADDRESS_NACK;
  2028  00146A  0E0F               	movlw	15
  2029  00146C  6E28               	movwf	(_I2C1_Status+39)^0,c
  2030  00146E                     l3116:
  2031                           
  2032                           ;mcc_generated_files/i2c1_master.c: 329:     I2C1_Status.state = i2c1_fsmStateTable[I2C1
      +                          _Status.state]();
  2033  00146E  5028               	movf	(_I2C1_Status+39)^0,w,c
  2034  001470  0D03               	mullw	3
  2035  001472  0E31               	movlw	low _i2c1_fsmStateTable
  2036  001474  24F3               	addwf	243,w,c
  2037  001476  6EF6               	movwf	tblptrl,c
  2038  001478  0E0E               	movlw	high _i2c1_fsmStateTable
  2039  00147A  20F4               	addwfc	244,w,c
  2040  00147C  6EF7               	movwf	tblptrh,c
  2041  00147E                     	if	1	;There are 3 active tblptr bytes
  2042  00147E  6AF8               	clrf	tblptru,c
  2043  001480  0E00               	movlw	low (__mediumconst shr (0+16))
  2044  001482  22F8               	addwfc	tblptru,f,c
  2045  001484                     	endif
  2046  001484  D802               	call	u738
  2047  001486  EF52  F00A         	goto	u739
  2048  00148A                     u738:
  2049  00148A  0005               	push	
  2050  00148C  6EFA               	movwf	pclath,c
  2051  00148E  0009               	tblrd		*+
  2052  001490  50F5               	movf	tablat,w,c
  2053  001492  6EFD               	movwf	tosl,c
  2054  001494  0009               	tblrd		*+
  2055  001496  50F5               	movf	tablat,w,c
  2056  001498  6EFE               	movwf	tosh,c
  2057  00149A  0009               	tblrd		*+
  2058  00149C  50F5               	movf	tablat,w,c
  2059  00149E  6EFF               	movwf	tosu,c
  2060  0014A0  50FA               	movf	pclath,w,c
  2061  0014A2  0012               	return		;indir
  2062  0014A4                     u739:
  2063  0014A4  6E28               	movwf	(_I2C1_Status+39)^0,c
  2064  0014A6  0012               	return		;funcret
  2065  0014A8                     __end_of_I2C1_MasterFsm:
  2066                           	callstack 0
  2067                           
  2068 ;; *************** function _I2C1_DO_ADDRESS_NACK *****************
  2069 ;; Defined at:
  2070 ;;		line 500 in file "mcc_generated_files/i2c1_master.c"
  2071 ;; Parameters:    Size  Location     Type
  2072 ;;		None
  2073 ;; Auto vars:     Size  Location     Type
  2074 ;;		None
  2075 ;; Return value:  Size  Location     Type
  2076 ;;                  1    wreg      enum E14614
  2077 ;; Registers used:
  2078 ;;		wreg, fsr2l, fsr2h, status,2, status,0, pclath, tosl, prodl, prodh, cstack
  2079 ;; Tracked objects:
  2080 ;;		On entry : 0/0
  2081 ;;		On exit  : 0/0
  2082 ;;		Unchanged: 0/0
  2083 ;; Data sizes:     COMRAM   BANK0   BANK1   BANK2   BANK3   BANK4   BANK5   BANK6   BANK7   BANK8   BANK9  BANK10  BANK1
      +1  BANK12  BANK13
  2084 ;;      Params:         0       0       0       0       0       0       0       0       0       0       0       0       
      +0       0       0
  2085 ;;      Locals:         0       0       0       0       0       0       0       0       0       0       0       0       
      +0       0       0
  2086 ;;      Temps:          2       0       0       0       0       0       0       0       0       0       0       0       
      +0       0       0
  2087 ;;      Totals:         2       0       0       0       0       0       0       0       0       0       0       0       
      +0       0       0
  2088 ;;Total ram usage:        2 bytes
  2089 ;; Hardware stack levels used:    1
  2090 ;; Hardware stack levels required when called:    3
  2091 ;; This function calls:
  2092 ;;		Absolute function
  2093 ;;		_I2C1_CallbackReturnReset
  2094 ;;		_I2C1_CallbackReturnStop
  2095 ;;		_I2C1_DO_SEND_RESTART
  2096 ;;		_I2C1_DO_SEND_STOP
  2097 ;;		_rd1RegCompleteHandler
  2098 ;;		_rd1RegCompleteHandler@i2c1_master_example$F145
  2099 ;;		_rd2RegCompleteHandler
  2100 ;;		_rd2RegCompleteHandler@i2c1_master_example$F156
  2101 ;;		_rdBlkRegCompleteHandler
  2102 ;;		_rdBlkRegCompleteHandler@i2c1_master_example$F179
  2103 ;;		_wr1RegCompleteHandler
  2104 ;;		_wr1RegCompleteHandler@i2c1_master_example$F162
  2105 ;;		_wr2RegCompleteHandler
  2106 ;;		_wr2RegCompleteHandler@i2c1_master_example$F168
  2107 ;; This function is called by:
  2108 ;;		_I2C1_MasterFsm
  2109 ;; This function uses a non-reentrant model
  2110 ;;
  2111                           
  2112                           	psect	text18
  2113  0013DA                     __ptext18:
  2114                           	callstack 0
  2115  0013DA                     _I2C1_DO_ADDRESS_NACK:
  2116                           	callstack 19
  2117  0013DA                     
  2118                           ;mcc_generated_files/i2c1_master.c: 502:     I2C1_Status.addressNackCheck = 0;
  2119  0013DA  902A               	bcf	(_I2C1_Status+41)^0,0,c
  2120  0013DC                     
  2121                           ;mcc_generated_files/i2c1_master.c: 503:     I2C1_Status.error = I2C1_FAIL;
  2122  0013DC  0E02               	movlw	2
  2123  0013DE  6E29               	movwf	(_I2C1_Status+40)^0,c
  2124                           
  2125                           ;mcc_generated_files/i2c1_master.c: 504:     switch(I2C1_Status.callbackTable[I2C1_ADDR_
      +                          NACK](I2C1_Status.callbackPayload[I2C1_ADDR_NACK]))
  2126  0013E0  EFFA  F009         	goto	l3100
  2127  0013E4                     l3090:
  2128                           
  2129                           ;mcc_generated_files/i2c1_master.c: 508:             return I2C1_DO_SEND_RESTART();
  2130  0013E4  ECC3  F00C         	call	_I2C1_DO_SEND_RESTART	;wreg free
  2131  0013E8  EF21  F00A         	goto	l648
  2132  0013EC                     l3094:
  2133                           
  2134                           ;mcc_generated_files/i2c1_master.c: 510:             return I2C1_DO_SEND_STOP();
  2135  0013EC  ECBF  F00C         	call	_I2C1_DO_SEND_STOP	;wreg free
  2136  0013F0  EF21  F00A         	goto	l648
  2137  0013F4                     l3100:
  2138  0013F4  C017  F04A         	movff	_I2C1_Status+22,I2C1_CallbackReturnReset@funPtr
  2139  0013F8  C018  F04B         	movff	_I2C1_Status+23,I2C1_CallbackReturnReset@funPtr+1
  2140  0013FC  EE20  F007         	lfsr	2,_I2C1_Status+6
  2141  001400  D802               	call	u698
  2142  001402  EF0D  F00A         	goto	u699
  2143  001406                     u698:
  2144  001406  0005               	push	
  2145  001408  6EFA               	movwf	pclath,c
  2146  00140A  50DE               	movf	postinc2,w,c
  2147  00140C  6EFD               	movwf	tosl,c
  2148  00140E  50DE               	movf	postinc2,w,c
  2149  001410  6EFE               	movwf	tosh,c
  2150  001412  50DE               	movf	postinc2,w,c
  2151  001414  6EFF               	movwf	tosu,c
  2152  001416  50FA               	movf	pclath,w,c
  2153  001418  0012               	return		;indir
  2154  00141A                     u699:
  2155  00141A  6E4C               	movwf	??_I2C1_DO_ADDRESS_NACK^0,c
  2156  00141C  6A4D               	clrf	(??_I2C1_DO_ADDRESS_NACK+1)^0,c
  2157                           
  2158                           ; Switch on 2 bytes has been partitioned into a top level switch of size 1, and 1 sub-sw
      +                          itches
  2159                           ; Switch size 1, requested type "simple"
  2160                           ; Number of cases is 1, Range of values is 0 to 0
  2161                           ; switch strategies available:
  2162                           ; Name         Instructions Cycles
  2163                           ; simple_byte            4     3 (average)
  2164                           ;	Chosen strategy is simple_byte
  2165  00141E  504D               	movf	(??_I2C1_DO_ADDRESS_NACK+1)^0,w,c
  2166  001420  0A00               	xorlw	0	; case 0
  2167  001422  B4D8               	btfsc	status,2,c
  2168  001424  EF16  F00A         	goto	l4538
  2169  001428  EFF6  F009         	goto	l3094
  2170  00142C                     l4538:
  2171                           
  2172                           ; Switch size 1, requested type "simple"
  2173                           ; Number of cases is 2, Range of values is 2 to 3
  2174                           ; switch strategies available:
  2175                           ; Name         Instructions Cycles
  2176                           ; simple_byte            7     4 (average)
  2177                           ;	Chosen strategy is simple_byte
  2178  00142C  504C               	movf	??_I2C1_DO_ADDRESS_NACK^0,w,c
  2179  00142E  0A02               	xorlw	2	; case 2
  2180  001430  B4D8               	btfsc	status,2,c
  2181  001432  EFF2  F009         	goto	l3090
  2182  001436  0A01               	xorlw	1	; case 3
  2183  001438  B4D8               	btfsc	status,2,c
  2184  00143A  EFF2  F009         	goto	l3090
  2185  00143E  EFF6  F009         	goto	l3094
  2186  001442                     l648:
  2187  001442  0012               	return		;funcret
  2188  001444                     __end_of_I2C1_DO_ADDRESS_NACK:
  2189                           	callstack 0
  2190                           
  2191 ;; *************** function _I2C1_DO_RESET *****************
  2192 ;; Defined at:
  2193 ;;		line 494 in file "mcc_generated_files/i2c1_master.c"
  2194 ;; Parameters:    Size  Location     Type
  2195 ;;		None
  2196 ;; Auto vars:     Size  Location     Type
  2197 ;;		None
  2198 ;; Return value:  Size  Location     Type
  2199 ;;                  1    wreg      enum E14614
  2200 ;; Registers used:
  2201 ;;		wreg, status,2
  2202 ;; Tracked objects:
  2203 ;;		On entry : 0/0
  2204 ;;		On exit  : 0/0
  2205 ;;		Unchanged: 0/0
  2206 ;; Data sizes:     COMRAM   BANK0   BANK1   BANK2   BANK3   BANK4   BANK5   BANK6   BANK7   BANK8   BANK9  BANK10  BANK1
      +1  BANK12  BANK13
  2207 ;;      Params:         0       0       0       0       0       0       0       0       0       0       0       0       
      +0       0       0
  2208 ;;      Locals:         0       0       0       0       0       0       0       0       0       0       0       0       
      +0       0       0
  2209 ;;      Temps:          0       0       0       0       0       0       0       0       0       0       0       0       
      +0       0       0
  2210 ;;      Totals:         0       0       0       0       0       0       0       0       0       0       0       0       
      +0       0       0
  2211 ;;Total ram usage:        0 bytes
  2212 ;; Hardware stack levels used:    1
  2213 ;; This function calls:
  2214 ;;		Nothing
  2215 ;; This function is called by:
  2216 ;;		_I2C1_MasterFsm
  2217 ;; This function uses a non-reentrant model
  2218 ;;
  2219                           
  2220                           	psect	text19
  2221  001940                     __ptext19:
  2222                           	callstack 0
  2223  001940                     _I2C1_DO_RESET:
  2224                           	callstack 22
  2225  001940                     
  2226                           ;mcc_generated_files/i2c1_master.c: 496:     I2C1_Status.busy = 0;
  2227  001940  922A               	bcf	(_I2C1_Status+41)^0,1,c
  2228  001942                     
  2229                           ;mcc_generated_files/i2c1_master.c: 497:     I2C1_Status.error = I2C1_NOERR;
  2230  001942  0E00               	movlw	0
  2231  001944  6E29               	movwf	(_I2C1_Status+40)^0,c
  2232  001946                     
  2233                           ;mcc_generated_files/i2c1_master.c: 498:     return I2C1_RESET;
  2234  001946  0E0E               	movlw	14
  2235  001948  0012               	return		;funcret
  2236  00194A                     __end_of_I2C1_DO_RESET:
  2237                           	callstack 0
  2238                           
  2239 ;; *************** function _I2C1_DO_RX_NACK_RESTART *****************
  2240 ;; Defined at:
  2241 ;;		line 488 in file "mcc_generated_files/i2c1_master.c"
  2242 ;; Parameters:    Size  Location     Type
  2243 ;;		None
  2244 ;; Auto vars:     Size  Location     Type
  2245 ;;		None
  2246 ;; Return value:  Size  Location     Type
  2247 ;;                  1    wreg      enum E14614
  2248 ;; Registers used:
  2249 ;;		wreg, cstack
  2250 ;; Tracked objects:
  2251 ;;		On entry : 0/0
  2252 ;;		On exit  : 0/0
  2253 ;;		Unchanged: 0/0
  2254 ;; Data sizes:     COMRAM   BANK0   BANK1   BANK2   BANK3   BANK4   BANK5   BANK6   BANK7   BANK8   BANK9  BANK10  BANK1
      +1  BANK12  BANK13
  2255 ;;      Params:         0       0       0       0       0       0       0       0       0       0       0       0       
      +0       0       0
  2256 ;;      Locals:         0       0       0       0       0       0       0       0       0       0       0       0       
      +0       0       0
  2257 ;;      Temps:          0       0       0       0       0       0       0       0       0       0       0       0       
      +0       0       0
  2258 ;;      Totals:         0       0       0       0       0       0       0       0       0       0       0       0       
      +0       0       0
  2259 ;;Total ram usage:        0 bytes
  2260 ;; Hardware stack levels used:    1
  2261 ;; Hardware stack levels required when called:    1
  2262 ;; This function calls:
  2263 ;;		_I2C1_MasterSendNack
  2264 ;; This function is called by:
  2265 ;;		_I2C1_DO_RX
  2266 ;;		_I2C1_MasterFsm
  2267 ;; This function uses a non-reentrant model
  2268 ;;
  2269                           
  2270                           	psect	text20
  2271  001966                     __ptext20:
  2272                           	callstack 0
  2273  001966                     _I2C1_DO_RX_NACK_RESTART:
  2274                           	callstack 21
  2275  001966                     
  2276                           ;mcc_generated_files/i2c1_master.c: 490:     I2C1_MasterSendNack();
  2277  001966  ECD9  F00C         	call	_I2C1_MasterSendNack	;wreg free
  2278  00196A                     
  2279                           ;mcc_generated_files/i2c1_master.c: 491:     return I2C1_SEND_RESTART;
  2280  00196A  0E09               	movlw	9
  2281  00196C  0012               	return		;funcret
  2282  00196E                     __end_of_I2C1_DO_RX_NACK_RESTART:
  2283                           	callstack 0
  2284                           
  2285 ;; *************** function _I2C1_DO_RX_NACK_STOP *****************
  2286 ;; Defined at:
  2287 ;;		line 482 in file "mcc_generated_files/i2c1_master.c"
  2288 ;; Parameters:    Size  Location     Type
  2289 ;;		None
  2290 ;; Auto vars:     Size  Location     Type
  2291 ;;		None
  2292 ;; Return value:  Size  Location     Type
  2293 ;;                  1    wreg      enum E14614
  2294 ;; Registers used:
  2295 ;;		wreg, cstack
  2296 ;; Tracked objects:
  2297 ;;		On entry : 0/0
  2298 ;;		On exit  : 0/0
  2299 ;;		Unchanged: 0/0
  2300 ;; Data sizes:     COMRAM   BANK0   BANK1   BANK2   BANK3   BANK4   BANK5   BANK6   BANK7   BANK8   BANK9  BANK10  BANK1
      +1  BANK12  BANK13
  2301 ;;      Params:         0       0       0       0       0       0       0       0       0       0       0       0       
      +0       0       0
  2302 ;;      Locals:         0       0       0       0       0       0       0       0       0       0       0       0       
      +0       0       0
  2303 ;;      Temps:          0       0       0       0       0       0       0       0       0       0       0       0       
      +0       0       0
  2304 ;;      Totals:         0       0       0       0       0       0       0       0       0       0       0       0       
      +0       0       0
  2305 ;;Total ram usage:        0 bytes
  2306 ;; Hardware stack levels used:    1
  2307 ;; Hardware stack levels required when called:    1
  2308 ;; This function calls:
  2309 ;;		_I2C1_MasterSendNack
  2310 ;; This function is called by:
  2311 ;;		_I2C1_DO_RX
  2312 ;;		_I2C1_MasterFsm
  2313 ;; This function uses a non-reentrant model
  2314 ;;
  2315                           
  2316                           	psect	text21
  2317  00196E                     __ptext21:
  2318                           	callstack 0
  2319  00196E                     _I2C1_DO_RX_NACK_STOP:
  2320                           	callstack 21
  2321  00196E                     
  2322                           ;mcc_generated_files/i2c1_master.c: 484:     I2C1_MasterSendNack();
  2323  00196E  ECD9  F00C         	call	_I2C1_MasterSendNack	;wreg free
  2324  001972                     
  2325                           ;mcc_generated_files/i2c1_master.c: 485:     return I2C1_SEND_STOP;
  2326  001972  0E0A               	movlw	10
  2327  001974  0012               	return		;funcret
  2328  001976                     __end_of_I2C1_DO_RX_NACK_STOP:
  2329                           	callstack 0
  2330                           
  2331 ;; *************** function _I2C1_DO_RX_ACK *****************
  2332 ;; Defined at:
  2333 ;;		line 475 in file "mcc_generated_files/i2c1_master.c"
  2334 ;; Parameters:    Size  Location     Type
  2335 ;;		None
  2336 ;; Auto vars:     Size  Location     Type
  2337 ;;		None
  2338 ;; Return value:  Size  Location     Type
  2339 ;;                  1    wreg      enum E14614
  2340 ;; Registers used:
  2341 ;;		wreg, cstack
  2342 ;; Tracked objects:
  2343 ;;		On entry : 0/0
  2344 ;;		On exit  : 0/0
  2345 ;;		Unchanged: 0/0
  2346 ;; Data sizes:     COMRAM   BANK0   BANK1   BANK2   BANK3   BANK4   BANK5   BANK6   BANK7   BANK8   BANK9  BANK10  BANK1
      +1  BANK12  BANK13
  2347 ;;      Params:         0       0       0       0       0       0       0       0       0       0       0       0       
      +0       0       0
  2348 ;;      Locals:         0       0       0       0       0       0       0       0       0       0       0       0       
      +0       0       0
  2349 ;;      Temps:          0       0       0       0       0       0       0       0       0       0       0       0       
      +0       0       0
  2350 ;;      Totals:         0       0       0       0       0       0       0       0       0       0       0       0       
      +0       0       0
  2351 ;;Total ram usage:        0 bytes
  2352 ;; Hardware stack levels used:    1
  2353 ;; Hardware stack levels required when called:    1
  2354 ;; This function calls:
  2355 ;;		_I2C1_MasterSendAck
  2356 ;; This function is called by:
  2357 ;;		_I2C1_MasterFsm
  2358 ;; This function uses a non-reentrant model
  2359 ;;
  2360                           
  2361                           	psect	text22
  2362  001976                     __ptext22:
  2363                           	callstack 0
  2364  001976                     _I2C1_DO_RX_ACK:
  2365                           	callstack 21
  2366  001976                     
  2367                           ;mcc_generated_files/i2c1_master.c: 477:     I2C1_MasterSendAck();
  2368  001976  ECD6  F00C         	call	_I2C1_MasterSendAck	;wreg free
  2369  00197A                     
  2370                           ;mcc_generated_files/i2c1_master.c: 478:     return I2C1_RCEN;
  2371  00197A  0E05               	movlw	5
  2372  00197C  0012               	return		;funcret
  2373  00197E                     __end_of_I2C1_DO_RX_ACK:
  2374                           	callstack 0
  2375                           
  2376 ;; *************** function _I2C1_DO_SEND_STOP *****************
  2377 ;; Defined at:
  2378 ;;		line 469 in file "mcc_generated_files/i2c1_master.c"
  2379 ;; Parameters:    Size  Location     Type
  2380 ;;		None
  2381 ;; Auto vars:     Size  Location     Type
  2382 ;;		None
  2383 ;; Return value:  Size  Location     Type
  2384 ;;                  1    wreg      enum E14614
  2385 ;; Registers used:
  2386 ;;		wreg, cstack
  2387 ;; Tracked objects:
  2388 ;;		On entry : 0/0
  2389 ;;		On exit  : 0/0
  2390 ;;		Unchanged: 0/0
  2391 ;; Data sizes:     COMRAM   BANK0   BANK1   BANK2   BANK3   BANK4   BANK5   BANK6   BANK7   BANK8   BANK9  BANK10  BANK1
      +1  BANK12  BANK13
  2392 ;;      Params:         0       0       0       0       0       0       0       0       0       0       0       0       
      +0       0       0
  2393 ;;      Locals:         0       0       0       0       0       0       0       0       0       0       0       0       
      +0       0       0
  2394 ;;      Temps:          0       0       0       0       0       0       0       0       0       0       0       0       
      +0       0       0
  2395 ;;      Totals:         0       0       0       0       0       0       0       0       0       0       0       0       
      +0       0       0
  2396 ;;Total ram usage:        0 bytes
  2397 ;; Hardware stack levels used:    1
  2398 ;; Hardware stack levels required when called:    1
  2399 ;; This function calls:
  2400 ;;		_I2C1_MasterStop
  2401 ;; This function is called by:
  2402 ;;		_I2C1_DO_TX
  2403 ;;		_I2C1_DO_TX_EMPTY
  2404 ;;		_I2C1_DO_ADDRESS_NACK
  2405 ;;		_I2C1_MasterFsm
  2406 ;; This function uses a non-reentrant model
  2407 ;;
  2408                           
  2409                           	psect	text23
  2410  00197E                     __ptext23:
  2411                           	callstack 0
  2412  00197E                     _I2C1_DO_SEND_STOP:
  2413                           	callstack 20
  2414  00197E                     
  2415                           ;mcc_generated_files/i2c1_master.c: 471:     I2C1_MasterStop();
  2416  00197E  ECF0  F00C         	call	_I2C1_MasterStop	;wreg free
  2417  001982                     
  2418                           ;mcc_generated_files/i2c1_master.c: 472:     return I2C1_IDLE;
  2419  001982  0E00               	movlw	0
  2420  001984  0012               	return		;funcret
  2421  001986                     __end_of_I2C1_DO_SEND_STOP:
  2422                           	callstack 0
  2423                           
  2424 ;; *************** function _I2C1_DO_SEND_RESTART *****************
  2425 ;; Defined at:
  2426 ;;		line 463 in file "mcc_generated_files/i2c1_master.c"
  2427 ;; Parameters:    Size  Location     Type
  2428 ;;		None
  2429 ;; Auto vars:     Size  Location     Type
  2430 ;;		None
  2431 ;; Return value:  Size  Location     Type
  2432 ;;                  1    wreg      enum E14614
  2433 ;; Registers used:
  2434 ;;		wreg, cstack
  2435 ;; Tracked objects:
  2436 ;;		On entry : 0/0
  2437 ;;		On exit  : 0/0
  2438 ;;		Unchanged: 0/0
  2439 ;; Data sizes:     COMRAM   BANK0   BANK1   BANK2   BANK3   BANK4   BANK5   BANK6   BANK7   BANK8   BANK9  BANK10  BANK1
      +1  BANK12  BANK13
  2440 ;;      Params:         0       0       0       0       0       0       0       0       0       0       0       0       
      +0       0       0
  2441 ;;      Locals:         0       0       0       0       0       0       0       0       0       0       0       0       
      +0       0       0
  2442 ;;      Temps:          0       0       0       0       0       0       0       0       0       0       0       0       
      +0       0       0
  2443 ;;      Totals:         0       0       0       0       0       0       0       0       0       0       0       0       
      +0       0       0
  2444 ;;Total ram usage:        0 bytes
  2445 ;; Hardware stack levels used:    1
  2446 ;; Hardware stack levels required when called:    1
  2447 ;; This function calls:
  2448 ;;		_I2C1_MasterEnableRestart
  2449 ;; This function is called by:
  2450 ;;		_I2C1_DO_TX_EMPTY
  2451 ;;		_I2C1_DO_ADDRESS_NACK
  2452 ;;		_I2C1_MasterFsm
  2453 ;; This function uses a non-reentrant model
  2454 ;;
  2455                           
  2456                           	psect	text24
  2457  001986                     __ptext24:
  2458                           	callstack 0
  2459  001986                     _I2C1_DO_SEND_RESTART:
  2460                           	callstack 20
  2461  001986                     
  2462                           ;mcc_generated_files/i2c1_master.c: 465:     I2C1_MasterEnableRestart();
  2463  001986  ECF2  F00C         	call	_I2C1_MasterEnableRestart	;wreg free
  2464  00198A                     
  2465                           ;mcc_generated_files/i2c1_master.c: 466:     return I2C1_SEND_ADR_READ;
  2466  00198A  0E01               	movlw	1
  2467  00198C  0012               	return		;funcret
  2468  00198E                     __end_of_I2C1_DO_SEND_RESTART:
  2469                           	callstack 0
  2470                           
  2471 ;; *************** function _I2C1_DO_SEND_RESTART_WRITE *****************
  2472 ;; Defined at:
  2473 ;;		line 456 in file "mcc_generated_files/i2c1_master.c"
  2474 ;; Parameters:    Size  Location     Type
  2475 ;;		None
  2476 ;; Auto vars:     Size  Location     Type
  2477 ;;		None
  2478 ;; Return value:  Size  Location     Type
  2479 ;;                  1    wreg      enum E14614
  2480 ;; Registers used:
  2481 ;;		wreg, cstack
  2482 ;; Tracked objects:
  2483 ;;		On entry : 0/0
  2484 ;;		On exit  : 0/0
  2485 ;;		Unchanged: 0/0
  2486 ;; Data sizes:     COMRAM   BANK0   BANK1   BANK2   BANK3   BANK4   BANK5   BANK6   BANK7   BANK8   BANK9  BANK10  BANK1
      +1  BANK12  BANK13
  2487 ;;      Params:         0       0       0       0       0       0       0       0       0       0       0       0       
      +0       0       0
  2488 ;;      Locals:         0       0       0       0       0       0       0       0       0       0       0       0       
      +0       0       0
  2489 ;;      Temps:          0       0       0       0       0       0       0       0       0       0       0       0       
      +0       0       0
  2490 ;;      Totals:         0       0       0       0       0       0       0       0       0       0       0       0       
      +0       0       0
  2491 ;;Total ram usage:        0 bytes
  2492 ;; Hardware stack levels used:    1
  2493 ;; Hardware stack levels required when called:    1
  2494 ;; This function calls:
  2495 ;;		_I2C1_MasterEnableRestart
  2496 ;; This function is called by:
  2497 ;;		_I2C1_DO_TX
  2498 ;;		_I2C1_MasterFsm
  2499 ;; This function uses a non-reentrant model
  2500 ;;
  2501                           
  2502                           	psect	text25
  2503  00198E                     __ptext25:
  2504                           	callstack 0
  2505  00198E                     _I2C1_DO_SEND_RESTART_WRITE:
  2506                           	callstack 20
  2507  00198E                     
  2508                           ;mcc_generated_files/i2c1_master.c: 458:     I2C1_MasterEnableRestart();
  2509  00198E  ECF2  F00C         	call	_I2C1_MasterEnableRestart	;wreg free
  2510  001992                     
  2511                           ;mcc_generated_files/i2c1_master.c: 459:     return I2C1_SEND_ADR_WRITE;
  2512  001992  0E02               	movlw	2
  2513  001994  0012               	return		;funcret
  2514  001996                     __end_of_I2C1_DO_SEND_RESTART_WRITE:
  2515                           	callstack 0
  2516                           
  2517 ;; *************** function _I2C1_DO_SEND_RESTART_READ *****************
  2518 ;; Defined at:
  2519 ;;		line 450 in file "mcc_generated_files/i2c1_master.c"
  2520 ;; Parameters:    Size  Location     Type
  2521 ;;		None
  2522 ;; Auto vars:     Size  Location     Type
  2523 ;;		None
  2524 ;; Return value:  Size  Location     Type
  2525 ;;                  1    wreg      enum E14614
  2526 ;; Registers used:
  2527 ;;		wreg, cstack
  2528 ;; Tracked objects:
  2529 ;;		On entry : 0/0
  2530 ;;		On exit  : 0/0
  2531 ;;		Unchanged: 0/0
  2532 ;; Data sizes:     COMRAM   BANK0   BANK1   BANK2   BANK3   BANK4   BANK5   BANK6   BANK7   BANK8   BANK9  BANK10  BANK1
      +1  BANK12  BANK13
  2533 ;;      Params:         0       0       0       0       0       0       0       0       0       0       0       0       
      +0       0       0
  2534 ;;      Locals:         0       0       0       0       0       0       0       0       0       0       0       0       
      +0       0       0
  2535 ;;      Temps:          0       0       0       0       0       0       0       0       0       0       0       0       
      +0       0       0
  2536 ;;      Totals:         0       0       0       0       0       0       0       0       0       0       0       0       
      +0       0       0
  2537 ;;Total ram usage:        0 bytes
  2538 ;; Hardware stack levels used:    1
  2539 ;; Hardware stack levels required when called:    1
  2540 ;; This function calls:
  2541 ;;		_I2C1_MasterEnableRestart
  2542 ;; This function is called by:
  2543 ;;		_I2C1_DO_TX
  2544 ;;		_I2C1_MasterFsm
  2545 ;; This function uses a non-reentrant model
  2546 ;;
  2547                           
  2548                           	psect	text26
  2549  001996                     __ptext26:
  2550                           	callstack 0
  2551  001996                     _I2C1_DO_SEND_RESTART_READ:
  2552                           	callstack 20
  2553  001996                     
  2554                           ;mcc_generated_files/i2c1_master.c: 452:     I2C1_MasterEnableRestart();
  2555  001996  ECF2  F00C         	call	_I2C1_MasterEnableRestart	;wreg free
  2556  00199A                     
  2557                           ;mcc_generated_files/i2c1_master.c: 453:     return I2C1_SEND_ADR_READ;
  2558  00199A  0E01               	movlw	1
  2559  00199C  0012               	return		;funcret
  2560  00199E                     __end_of_I2C1_DO_SEND_RESTART_READ:
  2561                           	callstack 0
  2562                           
  2563 ;; *************** function _I2C1_DO_RCEN *****************
  2564 ;; Defined at:
  2565 ;;		line 402 in file "mcc_generated_files/i2c1_master.c"
  2566 ;; Parameters:    Size  Location     Type
  2567 ;;		None
  2568 ;; Auto vars:     Size  Location     Type
  2569 ;;		None
  2570 ;; Return value:  Size  Location     Type
  2571 ;;                  1    wreg      enum E14614
  2572 ;; Registers used:
  2573 ;;		wreg, cstack
  2574 ;; Tracked objects:
  2575 ;;		On entry : 0/0
  2576 ;;		On exit  : 0/0
  2577 ;;		Unchanged: 0/0
  2578 ;; Data sizes:     COMRAM   BANK0   BANK1   BANK2   BANK3   BANK4   BANK5   BANK6   BANK7   BANK8   BANK9  BANK10  BANK1
      +1  BANK12  BANK13
  2579 ;;      Params:         0       0       0       0       0       0       0       0       0       0       0       0       
      +0       0       0
  2580 ;;      Locals:         0       0       0       0       0       0       0       0       0       0       0       0       
      +0       0       0
  2581 ;;      Temps:          0       0       0       0       0       0       0       0       0       0       0       0       
      +0       0       0
  2582 ;;      Totals:         0       0       0       0       0       0       0       0       0       0       0       0       
      +0       0       0
  2583 ;;Total ram usage:        0 bytes
  2584 ;; Hardware stack levels used:    1
  2585 ;; Hardware stack levels required when called:    1
  2586 ;; This function calls:
  2587 ;;		_I2C1_MasterStartRx
  2588 ;; This function is called by:
  2589 ;;		_I2C1_MasterFsm
  2590 ;; This function uses a non-reentrant model
  2591 ;;
  2592                           
  2593                           	psect	text27
  2594  00194A                     __ptext27:
  2595                           	callstack 0
  2596  00194A                     _I2C1_DO_RCEN:
  2597                           	callstack 21
  2598  00194A                     
  2599                           ;mcc_generated_files/i2c1_master.c: 404:     I2C1_Status.addressNackCheck = 0;
  2600  00194A  902A               	bcf	(_I2C1_Status+41)^0,0,c
  2601  00194C                     
  2602                           ;mcc_generated_files/i2c1_master.c: 405:     I2C1_MasterStartRx();
  2603  00194C  ECEA  F00C         	call	_I2C1_MasterStartRx	;wreg free
  2604  001950                     
  2605                           ;mcc_generated_files/i2c1_master.c: 406:     return I2C1_RX;
  2606  001950  0E04               	movlw	4
  2607  001952  0012               	return		;funcret
  2608  001954                     __end_of_I2C1_DO_RCEN:
  2609                           	callstack 0
  2610                           
  2611 ;; *************** function _I2C1_DO_RX *****************
  2612 ;; Defined at:
  2613 ;;		line 378 in file "mcc_generated_files/i2c1_master.c"
  2614 ;; Parameters:    Size  Location     Type
  2615 ;;		None
  2616 ;; Auto vars:     Size  Location     Type
  2617 ;;		None
  2618 ;; Return value:  Size  Location     Type
  2619 ;;                  1    wreg      enum E14614
  2620 ;; Registers used:
  2621 ;;		wreg, fsr2l, fsr2h, status,2, status,0, pclath, tosl, prodl, prodh, cstack
  2622 ;; Tracked objects:
  2623 ;;		On entry : 0/0
  2624 ;;		On exit  : 0/0
  2625 ;;		Unchanged: 0/0
  2626 ;; Data sizes:     COMRAM   BANK0   BANK1   BANK2   BANK3   BANK4   BANK5   BANK6   BANK7   BANK8   BANK9  BANK10  BANK1
      +1  BANK12  BANK13
  2627 ;;      Params:         0       0       0       0       0       0       0       0       0       0       0       0       
      +0       0       0
  2628 ;;      Locals:         0       0       0       0       0       0       0       0       0       0       0       0       
      +0       0       0
  2629 ;;      Temps:          2       0       0       0       0       0       0       0       0       0       0       0       
      +0       0       0
  2630 ;;      Totals:         2       0       0       0       0       0       0       0       0       0       0       0       
      +0       0       0
  2631 ;;Total ram usage:        2 bytes
  2632 ;; Hardware stack levels used:    1
  2633 ;; Hardware stack levels required when called:    3
  2634 ;; This function calls:
  2635 ;;		Absolute function
  2636 ;;		_I2C1_CallbackReturnReset
  2637 ;;		_I2C1_CallbackReturnStop
  2638 ;;		_I2C1_DO_RX_NACK_RESTART
  2639 ;;		_I2C1_DO_RX_NACK_STOP
  2640 ;;		_I2C1_MasterGetRxData
  2641 ;;		_I2C1_MasterSendAck
  2642 ;;		_rd1RegCompleteHandler
  2643 ;;		_rd1RegCompleteHandler@i2c1_master_example$F145
  2644 ;;		_rd2RegCompleteHandler
  2645 ;;		_rd2RegCompleteHandler@i2c1_master_example$F156
  2646 ;;		_rdBlkRegCompleteHandler
  2647 ;;		_rdBlkRegCompleteHandler@i2c1_master_example$F179
  2648 ;;		_wr1RegCompleteHandler
  2649 ;;		_wr1RegCompleteHandler@i2c1_master_example$F162
  2650 ;;		_wr2RegCompleteHandler
  2651 ;;		_wr2RegCompleteHandler@i2c1_master_example$F168
  2652 ;; This function is called by:
  2653 ;;		_I2C1_MasterFsm
  2654 ;; This function uses a non-reentrant model
  2655 ;;
  2656                           
  2657                           	psect	text28
  2658  0010A2                     __ptext28:
  2659                           	callstack 0
  2660  0010A2                     _I2C1_DO_RX:
  2661                           	callstack 19
  2662  0010A2                     
  2663                           ;mcc_generated_files/i2c1_master.c: 380:     *I2C1_Status.data_ptr++ = I2C1_MasterGetRxD
      +                          ata();
  2664  0010A2  ECE8  F00C         	call	_I2C1_MasterGetRxData	;wreg free
  2665  0010A6  C024  FFD9         	movff	_I2C1_Status+35,fsr2l
  2666  0010AA  C025  FFDA         	movff	_I2C1_Status+36,fsr2h
  2667  0010AE  6EDF               	movwf	indf2,c
  2668  0010B0  4A24               	infsnz	(_I2C1_Status+35)^0,f,c
  2669  0010B2  2A25               	incf	(_I2C1_Status+36)^0,f,c
  2670  0010B4                     
  2671                           ;mcc_generated_files/i2c1_master.c: 381:     if(--I2C1_Status.data_length)
  2672  0010B4  0626               	decf	(_I2C1_Status+37)^0,f,c
  2673  0010B6  A0D8               	btfss	status,0,c
  2674  0010B8  0627               	decf	(_I2C1_Status+38)^0,f,c
  2675  0010BA  5026               	movf	(_I2C1_Status+37)^0,w,c
  2676  0010BC  1027               	iorwf	(_I2C1_Status+38)^0,w,c
  2677  0010BE  B4D8               	btfsc	status,2,c
  2678  0010C0  EF64  F008         	goto	u661
  2679  0010C4  EF66  F008         	goto	u660
  2680  0010C8                     u661:
  2681  0010C8  EF6B  F008         	goto	l585
  2682  0010CC                     u660:
  2683  0010CC                     
  2684                           ;mcc_generated_files/i2c1_master.c: 382:     {;mcc_generated_files/i2c1_master.c: 383:  
      +                                 I2C1_MasterSendAck();
  2685  0010CC  ECD6  F00C         	call	_I2C1_MasterSendAck	;wreg free
  2686  0010D0                     
  2687                           ;mcc_generated_files/i2c1_master.c: 384:         return I2C1_RCEN;
  2688  0010D0  0E05               	movlw	5
  2689  0010D2  EFA3  F008         	goto	l586
  2690  0010D6                     l585:
  2691                           
  2692                           ;mcc_generated_files/i2c1_master.c: 387:     {;mcc_generated_files/i2c1_master.c: 388:  
      +                                 I2C1_Status.bufferFree = 1;
  2693  0010D6  862A               	bsf	(_I2C1_Status+41)^0,3,c
  2694                           
  2695                           ;mcc_generated_files/i2c1_master.c: 389:         switch(I2C1_Status.callbackTable[I2C1_D
      +                          ATA_COMPLETE](I2C1_Status.callbackPayload[I2C1_DATA_COMPLETE]))
  2696  0010D8  EF76  F008         	goto	l3034
  2697  0010DC                     l3024:
  2698                           
  2699                           ;mcc_generated_files/i2c1_master.c: 393:                 return I2C1_DO_RX_NACK_RESTART(
      +                          );
  2700  0010DC  ECB3  F00C         	call	_I2C1_DO_RX_NACK_RESTART	;wreg free
  2701  0010E0  EFA3  F008         	goto	l586
  2702  0010E4                     l3028:
  2703                           
  2704                           ;mcc_generated_files/i2c1_master.c: 397:                 return I2C1_DO_RX_NACK_STOP();
  2705  0010E4  ECB7  F00C         	call	_I2C1_DO_RX_NACK_STOP	;wreg free
  2706  0010E8  EFA3  F008         	goto	l586
  2707  0010EC                     l3034:
  2708  0010EC  C013  F04A         	movff	_I2C1_Status+18,I2C1_CallbackReturnReset@funPtr
  2709  0010F0  C014  F04B         	movff	_I2C1_Status+19,I2C1_CallbackReturnReset@funPtr+1
  2710  0010F4  D802               	call	u678
  2711  0010F6  EF87  F008         	goto	u679
  2712  0010FA                     u678:
  2713  0010FA  0005               	push	
  2714  0010FC  6EFA               	movwf	pclath,c
  2715  0010FE  5001               	movf	_I2C1_Status^0,w,c
  2716  001100  6EFD               	movwf	tosl,c
  2717  001102  5002               	movf	(_I2C1_Status+1)^0,w,c
  2718  001104  6EFE               	movwf	tosh,c
  2719  001106  5003               	movf	(_I2C1_Status+2)^0,w,c
  2720  001108  6EFF               	movwf	tosu,c
  2721  00110A  50FA               	movf	pclath,w,c
  2722  00110C  0012               	return		;indir
  2723  00110E                     u679:
  2724  00110E  6E4C               	movwf	??_I2C1_DO_RX^0,c
  2725  001110  6A4D               	clrf	(??_I2C1_DO_RX+1)^0,c
  2726                           
  2727                           ; Switch on 2 bytes has been partitioned into a top level switch of size 1, and 1 sub-sw
      +                          itches
  2728                           ; Switch size 1, requested type "simple"
  2729                           ; Number of cases is 1, Range of values is 0 to 0
  2730                           ; switch strategies available:
  2731                           ; Name         Instructions Cycles
  2732                           ; simple_byte            4     3 (average)
  2733                           ;	Chosen strategy is simple_byte
  2734  001112  504D               	movf	(??_I2C1_DO_RX+1)^0,w,c
  2735  001114  0A00               	xorlw	0	; case 0
  2736  001116  B4D8               	btfsc	status,2,c
  2737  001118  EF90  F008         	goto	l4540
  2738  00111C  EF72  F008         	goto	l3028
  2739  001120                     l4540:
  2740                           
  2741                           ; Switch size 1, requested type "simple"
  2742                           ; Number of cases is 4, Range of values is 1 to 4
  2743                           ; switch strategies available:
  2744                           ; Name         Instructions Cycles
  2745                           ; simple_byte           13     7 (average)
  2746                           ;	Chosen strategy is simple_byte
  2747  001120  504C               	movf	??_I2C1_DO_RX^0,w,c
  2748  001122  0A01               	xorlw	1	; case 1
  2749  001124  B4D8               	btfsc	status,2,c
  2750  001126  EF72  F008         	goto	l3028
  2751  00112A  0A03               	xorlw	3	; case 2
  2752  00112C  B4D8               	btfsc	status,2,c
  2753  00112E  EF6E  F008         	goto	l3024
  2754  001132  0A01               	xorlw	1	; case 3
  2755  001134  B4D8               	btfsc	status,2,c
  2756  001136  EF6E  F008         	goto	l3024
  2757  00113A  0A07               	xorlw	7	; case 4
  2758  00113C  B4D8               	btfsc	status,2,c
  2759  00113E  EF72  F008         	goto	l3028
  2760  001142  EF72  F008         	goto	l3028
  2761  001146                     l586:
  2762  001146  0012               	return		;funcret
  2763  001148                     __end_of_I2C1_DO_RX:
  2764                           	callstack 0
  2765                           
  2766 ;; *************** function _I2C1_DO_TX *****************
  2767 ;; Defined at:
  2768 ;;		line 354 in file "mcc_generated_files/i2c1_master.c"
  2769 ;; Parameters:    Size  Location     Type
  2770 ;;		None
  2771 ;; Auto vars:     Size  Location     Type
  2772 ;;		None
  2773 ;; Return value:  Size  Location     Type
  2774 ;;                  1    wreg      enum E14614
  2775 ;; Registers used:
  2776 ;;		wreg, fsr2l, fsr2h, status,2, status,0, pclath, tosl, prodl, prodh, cstack
  2777 ;; Tracked objects:
  2778 ;;		On entry : 0/0
  2779 ;;		On exit  : 0/0
  2780 ;;		Unchanged: 0/0
  2781 ;; Data sizes:     COMRAM   BANK0   BANK1   BANK2   BANK3   BANK4   BANK5   BANK6   BANK7   BANK8   BANK9  BANK10  BANK1
      +1  BANK12  BANK13
  2782 ;;      Params:         0       0       0       0       0       0       0       0       0       0       0       0       
      +0       0       0
  2783 ;;      Locals:         0       0       0       0       0       0       0       0       0       0       0       0       
      +0       0       0
  2784 ;;      Temps:          2       0       0       0       0       0       0       0       0       0       0       0       
      +0       0       0
  2785 ;;      Totals:         2       0       0       0       0       0       0       0       0       0       0       0       
      +0       0       0
  2786 ;;Total ram usage:        2 bytes
  2787 ;; Hardware stack levels used:    1
  2788 ;; Hardware stack levels required when called:    3
  2789 ;; This function calls:
  2790 ;;		Absolute function
  2791 ;;		_I2C1_CallbackReturnReset
  2792 ;;		_I2C1_CallbackReturnStop
  2793 ;;		_I2C1_DO_SEND_RESTART_READ
  2794 ;;		_I2C1_DO_SEND_RESTART_WRITE
  2795 ;;		_I2C1_DO_SEND_STOP
  2796 ;;		_I2C1_MasterIsNack
  2797 ;;		_I2C1_MasterSendTxData
  2798 ;;		_rd1RegCompleteHandler
  2799 ;;		_rd1RegCompleteHandler@i2c1_master_example$F145
  2800 ;;		_rd2RegCompleteHandler
  2801 ;;		_rd2RegCompleteHandler@i2c1_master_example$F156
  2802 ;;		_rdBlkRegCompleteHandler
  2803 ;;		_rdBlkRegCompleteHandler@i2c1_master_example$F179
  2804 ;;		_wr1RegCompleteHandler
  2805 ;;		_wr1RegCompleteHandler@i2c1_master_example$F162
  2806 ;;		_wr2RegCompleteHandler
  2807 ;;		_wr2RegCompleteHandler@i2c1_master_example$F168
  2808 ;; This function is called by:
  2809 ;;		_I2C1_MasterFsm
  2810 ;; This function uses a non-reentrant model
  2811 ;;
  2812                           
  2813                           	psect	text29
  2814  000E74                     __ptext29:
  2815                           	callstack 0
  2816  000E74                     _I2C1_DO_TX:
  2817                           	callstack 19
  2818  000E74                     
  2819                           ;mcc_generated_files/i2c1_master.c: 356:     if(I2C1_MasterIsNack())
  2820  000E74  EC6E  F00C         	call	_I2C1_MasterIsNack	;wreg free
  2821  000E78  0900               	iorlw	0
  2822  000E7A  B4D8               	btfsc	status,2,c
  2823  000E7C  EF42  F007         	goto	u631
  2824  000E80  EF44  F007         	goto	u630
  2825  000E84                     u631:
  2826  000E84  EF81  F007         	goto	l569
  2827  000E88                     u630:
  2828  000E88  EF52  F007         	goto	l2994
  2829  000E8C                     l2980:
  2830                           
  2831                           ;mcc_generated_files/i2c1_master.c: 361:                 return I2C1_DO_SEND_RESTART_REA
      +                          D();
  2832  000E8C  ECCB  F00C         	call	_I2C1_DO_SEND_RESTART_READ	;wreg free
  2833  000E90  EF9B  F007         	goto	l572
  2834  000E94                     l2984:
  2835                           
  2836                           ;mcc_generated_files/i2c1_master.c: 363:                   return I2C1_DO_SEND_RESTART_W
      +                          RITE();
  2837  000E94  ECC7  F00C         	call	_I2C1_DO_SEND_RESTART_WRITE	;wreg free
  2838  000E98  EF9B  F007         	goto	l572
  2839  000E9C                     l2988:
  2840                           
  2841                           ;mcc_generated_files/i2c1_master.c: 367:                 return I2C1_DO_SEND_STOP();
  2842  000E9C  ECBF  F00C         	call	_I2C1_DO_SEND_STOP	;wreg free
  2843  000EA0  EF9B  F007         	goto	l572
  2844  000EA4                     l2994:
  2845  000EA4  C019  F04A         	movff	_I2C1_Status+24,I2C1_CallbackReturnReset@funPtr
  2846  000EA8  C01A  F04B         	movff	_I2C1_Status+25,I2C1_CallbackReturnReset@funPtr+1
  2847  000EAC  EE20  F00A         	lfsr	2,_I2C1_Status+9
  2848  000EB0  D802               	call	u648
  2849  000EB2  EF65  F007         	goto	u649
  2850  000EB6                     u648:
  2851  000EB6  0005               	push	
  2852  000EB8  6EFA               	movwf	pclath,c
  2853  000EBA  50DE               	movf	postinc2,w,c
  2854  000EBC  6EFD               	movwf	tosl,c
  2855  000EBE  50DE               	movf	postinc2,w,c
  2856  000EC0  6EFE               	movwf	tosh,c
  2857  000EC2  50DE               	movf	postinc2,w,c
  2858  000EC4  6EFF               	movwf	tosu,c
  2859  000EC6  50FA               	movf	pclath,w,c
  2860  000EC8  0012               	return		;indir
  2861  000ECA                     u649:
  2862  000ECA  6E4C               	movwf	??_I2C1_DO_TX^0,c
  2863  000ECC  6A4D               	clrf	(??_I2C1_DO_TX+1)^0,c
  2864                           
  2865                           ; Switch on 2 bytes has been partitioned into a top level switch of size 1, and 1 sub-sw
      +                          itches
  2866                           ; Switch size 1, requested type "simple"
  2867                           ; Number of cases is 1, Range of values is 0 to 0
  2868                           ; switch strategies available:
  2869                           ; Name         Instructions Cycles
  2870                           ; simple_byte            4     3 (average)
  2871                           ;	Chosen strategy is simple_byte
  2872  000ECE  504D               	movf	(??_I2C1_DO_TX+1)^0,w,c
  2873  000ED0  0A00               	xorlw	0	; case 0
  2874  000ED2  B4D8               	btfsc	status,2,c
  2875  000ED4  EF6E  F007         	goto	l4542
  2876  000ED8  EF4E  F007         	goto	l2988
  2877  000EDC                     l4542:
  2878                           
  2879                           ; Switch size 1, requested type "simple"
  2880                           ; Number of cases is 4, Range of values is 1 to 4
  2881                           ; switch strategies available:
  2882                           ; Name         Instructions Cycles
  2883                           ; simple_byte           13     7 (average)
  2884                           ;	Chosen strategy is simple_byte
  2885  000EDC  504C               	movf	??_I2C1_DO_TX^0,w,c
  2886  000EDE  0A01               	xorlw	1	; case 1
  2887  000EE0  B4D8               	btfsc	status,2,c
  2888  000EE2  EF4E  F007         	goto	l2988
  2889  000EE6  0A03               	xorlw	3	; case 2
  2890  000EE8  B4D8               	btfsc	status,2,c
  2891  000EEA  EF46  F007         	goto	l2980
  2892  000EEE  0A01               	xorlw	1	; case 3
  2893  000EF0  B4D8               	btfsc	status,2,c
  2894  000EF2  EF4A  F007         	goto	l2984
  2895  000EF6  0A07               	xorlw	7	; case 4
  2896  000EF8  B4D8               	btfsc	status,2,c
  2897  000EFA  EF4E  F007         	goto	l2988
  2898  000EFE  EF4E  F007         	goto	l2988
  2899  000F02                     l569:
  2900                           
  2901                           ;mcc_generated_files/i2c1_master.c: 371:     {;mcc_generated_files/i2c1_master.c: 372:  
      +                                 I2C1_Status.addressNackCheck = 0;
  2902  000F02  902A               	bcf	(_I2C1_Status+41)^0,0,c
  2903  000F04                     
  2904                           ;mcc_generated_files/i2c1_master.c: 373:         I2C1_MasterSendTxData(*I2C1_Status.data
      +                          _ptr++);
  2905  000F04  C024  FFD9         	movff	_I2C1_Status+35,fsr2l
  2906  000F08  C025  FFDA         	movff	_I2C1_Status+36,fsr2h
  2907  000F0C  4A24               	infsnz	(_I2C1_Status+35)^0,f,c
  2908  000F0E  2A25               	incf	(_I2C1_Status+36)^0,f,c
  2909  000F10  50DF               	movf	indf2,w,c
  2910  000F12  ECCF  F00C         	call	_I2C1_MasterSendTxData
  2911  000F16                     
  2912                           ;mcc_generated_files/i2c1_master.c: 374:         return (--I2C1_Status.data_length)?I2C1
      +                          _TX:I2C1_TX_EMPTY;
  2913  000F16  0626               	decf	(_I2C1_Status+37)^0,f,c
  2914  000F18  A0D8               	btfss	status,0,c
  2915  000F1A  0627               	decf	(_I2C1_Status+38)^0,f,c
  2916  000F1C  5026               	movf	(_I2C1_Status+37)^0,w,c
  2917  000F1E  1027               	iorwf	(_I2C1_Status+38)^0,w,c
  2918  000F20  A4D8               	btfss	status,2,c
  2919  000F22  EF95  F007         	goto	u651
  2920  000F26  EF97  F007         	goto	u650
  2921  000F2A                     u651:
  2922  000F2A  EF9A  F007         	goto	l3002
  2923  000F2E                     u650:
  2924  000F2E  0E06               	movlw	6
  2925  000F30  EF9B  F007         	goto	l572
  2926  000F34                     l3002:
  2927  000F34  0E03               	movlw	3
  2928  000F36                     l572:
  2929  000F36  0012               	return		;funcret
  2930  000F38                     __end_of_I2C1_DO_TX:
  2931                           	callstack 0
  2932                           
  2933 ;; *************** function _I2C1_DO_SEND_ADR_WRITE *****************
  2934 ;; Defined at:
  2935 ;;		line 347 in file "mcc_generated_files/i2c1_master.c"
  2936 ;; Parameters:    Size  Location     Type
  2937 ;;		None
  2938 ;; Auto vars:     Size  Location     Type
  2939 ;;		None
  2940 ;; Return value:  Size  Location     Type
  2941 ;;                  1    wreg      enum E14614
  2942 ;; Registers used:
  2943 ;;		wreg, status,2, status,0, cstack
  2944 ;; Tracked objects:
  2945 ;;		On entry : 0/0
  2946 ;;		On exit  : 0/0
  2947 ;;		Unchanged: 0/0
  2948 ;; Data sizes:     COMRAM   BANK0   BANK1   BANK2   BANK3   BANK4   BANK5   BANK6   BANK7   BANK8   BANK9  BANK10  BANK1
      +1  BANK12  BANK13
  2949 ;;      Params:         0       0       0       0       0       0       0       0       0       0       0       0       
      +0       0       0
  2950 ;;      Locals:         0       0       0       0       0       0       0       0       0       0       0       0       
      +0       0       0
  2951 ;;      Temps:          0       0       0       0       0       0       0       0       0       0       0       0       
      +0       0       0
  2952 ;;      Totals:         0       0       0       0       0       0       0       0       0       0       0       0       
      +0       0       0
  2953 ;;Total ram usage:        0 bytes
  2954 ;; Hardware stack levels used:    1
  2955 ;; Hardware stack levels required when called:    1
  2956 ;; This function calls:
  2957 ;;		_I2C1_MasterSendTxData
  2958 ;; This function is called by:
  2959 ;;		_I2C1_MasterFsm
  2960 ;; This function uses a non-reentrant model
  2961 ;;
  2962                           
  2963                           	psect	text30
  2964  001924                     __ptext30:
  2965                           	callstack 0
  2966  001924                     _I2C1_DO_SEND_ADR_WRITE:
  2967                           	callstack 21
  2968  001924                     
  2969                           ;mcc_generated_files/i2c1_master.c: 349:     I2C1_Status.addressNackCheck = 1;
  2970  001924  802A               	bsf	(_I2C1_Status+41)^0,0,c
  2971  001926                     
  2972                           ;mcc_generated_files/i2c1_master.c: 350:     I2C1_MasterSendTxData((uint8_t) (I2C1_Statu
      +                          s.address << 1));
  2973  001926  5023               	movf	(_I2C1_Status+34)^0,w,c
  2974  001928  2423               	addwf	(_I2C1_Status+34)^0,w,c
  2975  00192A  ECCF  F00C         	call	_I2C1_MasterSendTxData
  2976  00192E                     
  2977                           ;mcc_generated_files/i2c1_master.c: 351:     return I2C1_TX;
  2978  00192E  0E03               	movlw	3
  2979  001930  0012               	return		;funcret
  2980  001932                     __end_of_I2C1_DO_SEND_ADR_WRITE:
  2981                           	callstack 0
  2982                           
  2983 ;; *************** function _I2C1_DO_SEND_ADR_READ *****************
  2984 ;; Defined at:
  2985 ;;		line 340 in file "mcc_generated_files/i2c1_master.c"
  2986 ;; Parameters:    Size  Location     Type
  2987 ;;		None
  2988 ;; Auto vars:     Size  Location     Type
  2989 ;;		None
  2990 ;; Return value:  Size  Location     Type
  2991 ;;                  1    wreg      enum E14614
  2992 ;; Registers used:
  2993 ;;		wreg, status,0, cstack
  2994 ;; Tracked objects:
  2995 ;;		On entry : 0/0
  2996 ;;		On exit  : 0/0
  2997 ;;		Unchanged: 0/0
  2998 ;; Data sizes:     COMRAM   BANK0   BANK1   BANK2   BANK3   BANK4   BANK5   BANK6   BANK7   BANK8   BANK9  BANK10  BANK1
      +1  BANK12  BANK13
  2999 ;;      Params:         0       0       0       0       0       0       0       0       0       0       0       0       
      +0       0       0
  3000 ;;      Locals:         0       0       0       0       0       0       0       0       0       0       0       0       
      +0       0       0
  3001 ;;      Temps:          0       0       0       0       0       0       0       0       0       0       0       0       
      +0       0       0
  3002 ;;      Totals:         0       0       0       0       0       0       0       0       0       0       0       0       
      +0       0       0
  3003 ;;Total ram usage:        0 bytes
  3004 ;; Hardware stack levels used:    1
  3005 ;; Hardware stack levels required when called:    1
  3006 ;; This function calls:
  3007 ;;		_I2C1_MasterSendTxData
  3008 ;; This function is called by:
  3009 ;;		_I2C1_MasterFsm
  3010 ;; This function uses a non-reentrant model
  3011 ;;
  3012                           
  3013                           	psect	text31
  3014  001932                     __ptext31:
  3015                           	callstack 0
  3016  001932                     _I2C1_DO_SEND_ADR_READ:
  3017                           	callstack 21
  3018  001932                     
  3019                           ;mcc_generated_files/i2c1_master.c: 342:     I2C1_Status.addressNackCheck = 1;
  3020  001932  802A               	bsf	(_I2C1_Status+41)^0,0,c
  3021  001934                     
  3022                           ;mcc_generated_files/i2c1_master.c: 343:     I2C1_MasterSendTxData((uint8_t) (I2C1_Statu
      +                          s.address << 1 | 1));
  3023  001934  80D8               	bsf	status,0,c
  3024  001936  3423               	rlcf	(_I2C1_Status+34)^0,w,c
  3025  001938  ECCF  F00C         	call	_I2C1_MasterSendTxData
  3026  00193C                     
  3027                           ;mcc_generated_files/i2c1_master.c: 344:     return I2C1_RCEN;
  3028  00193C  0E05               	movlw	5
  3029  00193E  0012               	return		;funcret
  3030  001940                     __end_of_I2C1_DO_SEND_ADR_READ:
  3031                           	callstack 0
  3032                           
  3033 ;; *************** function _I2C1_DO_IDLE *****************
  3034 ;; Defined at:
  3035 ;;		line 333 in file "mcc_generated_files/i2c1_master.c"
  3036 ;; Parameters:    Size  Location     Type
  3037 ;;		None
  3038 ;; Auto vars:     Size  Location     Type
  3039 ;;		None
  3040 ;; Return value:  Size  Location     Type
  3041 ;;                  1    wreg      enum E14614
  3042 ;; Registers used:
  3043 ;;		wreg, status,2
  3044 ;; Tracked objects:
  3045 ;;		On entry : 0/0
  3046 ;;		On exit  : 0/0
  3047 ;;		Unchanged: 0/0
  3048 ;; Data sizes:     COMRAM   BANK0   BANK1   BANK2   BANK3   BANK4   BANK5   BANK6   BANK7   BANK8   BANK9  BANK10  BANK1
      +1  BANK12  BANK13
  3049 ;;      Params:         0       0       0       0       0       0       0       0       0       0       0       0       
      +0       0       0
  3050 ;;      Locals:         0       0       0       0       0       0       0       0       0       0       0       0       
      +0       0       0
  3051 ;;      Temps:          0       0       0       0       0       0       0       0       0       0       0       0       
      +0       0       0
  3052 ;;      Totals:         0       0       0       0       0       0       0       0       0       0       0       0       
      +0       0       0
  3053 ;;Total ram usage:        0 bytes
  3054 ;; Hardware stack levels used:    1
  3055 ;; This function calls:
  3056 ;;		Nothing
  3057 ;; This function is called by:
  3058 ;;		_I2C1_MasterFsm
  3059 ;; This function uses a non-reentrant model
  3060 ;;
  3061                           
  3062                           	psect	text32
  3063  001954                     __ptext32:
  3064                           	callstack 0
  3065  001954                     _I2C1_DO_IDLE:
  3066                           	callstack 22
  3067  001954                     
  3068                           ;mcc_generated_files/i2c1_master.c: 335:     I2C1_Status.busy = 0;
  3069  001954  922A               	bcf	(_I2C1_Status+41)^0,1,c
  3070  001956                     
  3071                           ;mcc_generated_files/i2c1_master.c: 336:     I2C1_Status.error = I2C1_NOERR;
  3072  001956  0E00               	movlw	0
  3073  001958  6E29               	movwf	(_I2C1_Status+40)^0,c
  3074  00195A                     
  3075                           ;mcc_generated_files/i2c1_master.c: 337:     return I2C1_RESET;
  3076  00195A  0E0E               	movlw	14
  3077  00195C  0012               	return		;funcret
  3078  00195E                     __end_of_I2C1_DO_IDLE:
  3079                           	callstack 0
  3080                           
  3081 ;; *************** function _I2C1_DO_TX_EMPTY *****************
  3082 ;; Defined at:
  3083 ;;		line 409 in file "mcc_generated_files/i2c1_master.c"
  3084 ;; Parameters:    Size  Location     Type
  3085 ;;		None
  3086 ;; Auto vars:     Size  Location     Type
  3087 ;;		None
  3088 ;; Return value:  Size  Location     Type
  3089 ;;                  1    wreg      enum E14614
  3090 ;; Registers used:
  3091 ;;		wreg, fsr2l, fsr2h, status,2, status,0, pclath, tosl, prodl, prodh, cstack
  3092 ;; Tracked objects:
  3093 ;;		On entry : 0/0
  3094 ;;		On exit  : 0/0
  3095 ;;		Unchanged: 0/0
  3096 ;; Data sizes:     COMRAM   BANK0   BANK1   BANK2   BANK3   BANK4   BANK5   BANK6   BANK7   BANK8   BANK9  BANK10  BANK1
      +1  BANK12  BANK13
  3097 ;;      Params:         0       0       0       0       0       0       0       0       0       0       0       0       
      +0       0       0
  3098 ;;      Locals:         0       0       0       0       0       0       0       0       0       0       0       0       
      +0       0       0
  3099 ;;      Temps:          2       0       0       0       0       0       0       0       0       0       0       0       
      +0       0       0
  3100 ;;      Totals:         2       0       0       0       0       0       0       0       0       0       0       0       
      +0       0       0
  3101 ;;Total ram usage:        2 bytes
  3102 ;; Hardware stack levels used:    1
  3103 ;; Hardware stack levels required when called:    3
  3104 ;; This function calls:
  3105 ;;		Absolute function
  3106 ;;		_I2C1_CallbackReturnReset
  3107 ;;		_I2C1_CallbackReturnStop
  3108 ;;		_I2C1_DO_SEND_RESTART
  3109 ;;		_I2C1_DO_SEND_STOP
  3110 ;;		_I2C1_MasterSetIrq
  3111 ;;		_rd1RegCompleteHandler
  3112 ;;		_rd1RegCompleteHandler@i2c1_master_example$F145
  3113 ;;		_rd2RegCompleteHandler
  3114 ;;		_rd2RegCompleteHandler@i2c1_master_example$F156
  3115 ;;		_rdBlkRegCompleteHandler
  3116 ;;		_rdBlkRegCompleteHandler@i2c1_master_example$F179
  3117 ;;		_wr1RegCompleteHandler
  3118 ;;		_wr1RegCompleteHandler@i2c1_master_example$F162
  3119 ;;		_wr2RegCompleteHandler
  3120 ;;		_wr2RegCompleteHandler@i2c1_master_example$F168
  3121 ;; This function is called by:
  3122 ;;		_I2C1_MasterFsm
  3123 ;; This function uses a non-reentrant model
  3124 ;;
  3125                           
  3126                           	psect	text33
  3127  0012E8                     __ptext33:
  3128                           	callstack 0
  3129  0012E8                     _I2C1_DO_TX_EMPTY:
  3130                           	callstack 19
  3131  0012E8                     
  3132                           ;mcc_generated_files/i2c1_master.c: 411:     I2C1_Status.bufferFree = 1;
  3133  0012E8  862A               	bsf	(_I2C1_Status+41)^0,3,c
  3134                           
  3135                           ;mcc_generated_files/i2c1_master.c: 412:     switch(I2C1_Status.callbackTable[I2C1_DATA_
      +                          COMPLETE](I2C1_Status.callbackPayload[I2C1_DATA_COMPLETE]))
  3136  0012EA  EF84  F009         	goto	l3066
  3137  0012EE                     l3050:
  3138                           
  3139                           ;mcc_generated_files/i2c1_master.c: 416:             return I2C1_DO_SEND_RESTART();
  3140  0012EE  ECC3  F00C         	call	_I2C1_DO_SEND_RESTART	;wreg free
  3141  0012F2  EFB1  F009         	goto	l603
  3142  0012F6                     l3054:
  3143                           
  3144                           ;mcc_generated_files/i2c1_master.c: 418:             I2C1_MasterSetIrq();
  3145  0012F6  ECD3  F00C         	call	_I2C1_MasterSetIrq	;wreg free
  3146  0012FA                     
  3147                           ;mcc_generated_files/i2c1_master.c: 419:             return I2C1_TX;
  3148  0012FA  0E03               	movlw	3
  3149  0012FC  EFB1  F009         	goto	l603
  3150  001300                     l3060:
  3151                           
  3152                           ;mcc_generated_files/i2c1_master.c: 422:             return I2C1_DO_SEND_STOP();
  3153  001300  ECBF  F00C         	call	_I2C1_DO_SEND_STOP	;wreg free
  3154  001304  EFB1  F009         	goto	l603
  3155  001308                     l3066:
  3156  001308  C013  F04A         	movff	_I2C1_Status+18,I2C1_CallbackReturnReset@funPtr
  3157  00130C  C014  F04B         	movff	_I2C1_Status+19,I2C1_CallbackReturnReset@funPtr+1
  3158  001310  D802               	call	u688
  3159  001312  EF95  F009         	goto	u689
  3160  001316                     u688:
  3161  001316  0005               	push	
  3162  001318  6EFA               	movwf	pclath,c
  3163  00131A  5001               	movf	_I2C1_Status^0,w,c
  3164  00131C  6EFD               	movwf	tosl,c
  3165  00131E  5002               	movf	(_I2C1_Status+1)^0,w,c
  3166  001320  6EFE               	movwf	tosh,c
  3167  001322  5003               	movf	(_I2C1_Status+2)^0,w,c
  3168  001324  6EFF               	movwf	tosu,c
  3169  001326  50FA               	movf	pclath,w,c
  3170  001328  0012               	return		;indir
  3171  00132A                     u689:
  3172  00132A  6E4C               	movwf	??_I2C1_DO_TX_EMPTY^0,c
  3173  00132C  6A4D               	clrf	(??_I2C1_DO_TX_EMPTY+1)^0,c
  3174                           
  3175                           ; Switch on 2 bytes has been partitioned into a top level switch of size 1, and 1 sub-sw
      +                          itches
  3176                           ; Switch size 1, requested type "simple"
  3177                           ; Number of cases is 1, Range of values is 0 to 0
  3178                           ; switch strategies available:
  3179                           ; Name         Instructions Cycles
  3180                           ; simple_byte            4     3 (average)
  3181                           ;	Chosen strategy is simple_byte
  3182  00132E  504D               	movf	(??_I2C1_DO_TX_EMPTY+1)^0,w,c
  3183  001330  0A00               	xorlw	0	; case 0
  3184  001332  B4D8               	btfsc	status,2,c
  3185  001334  EF9E  F009         	goto	l4544
  3186  001338  EF80  F009         	goto	l3060
  3187  00133C                     l4544:
  3188                           
  3189                           ; Switch size 1, requested type "simple"
  3190                           ; Number of cases is 4, Range of values is 1 to 4
  3191                           ; switch strategies available:
  3192                           ; Name         Instructions Cycles
  3193                           ; simple_byte           13     7 (average)
  3194                           ;	Chosen strategy is simple_byte
  3195  00133C  504C               	movf	??_I2C1_DO_TX_EMPTY^0,w,c
  3196  00133E  0A01               	xorlw	1	; case 1
  3197  001340  B4D8               	btfsc	status,2,c
  3198  001342  EF80  F009         	goto	l3060
  3199  001346  0A03               	xorlw	3	; case 2
  3200  001348  B4D8               	btfsc	status,2,c
  3201  00134A  EF77  F009         	goto	l3050
  3202  00134E  0A01               	xorlw	1	; case 3
  3203  001350  B4D8               	btfsc	status,2,c
  3204  001352  EF77  F009         	goto	l3050
  3205  001356  0A07               	xorlw	7	; case 4
  3206  001358  B4D8               	btfsc	status,2,c
  3207  00135A  EF7B  F009         	goto	l3054
  3208  00135E  EF80  F009         	goto	l3060
  3209  001362                     l603:
  3210  001362  0012               	return		;funcret
  3211  001364                     __end_of_I2C1_DO_TX_EMPTY:
  3212                           	callstack 0
  3213                           
  3214 ;; *************** function _I2C1_MasterSetIrq *****************
  3215 ;; Defined at:
  3216 ;;		line 645 in file "mcc_generated_files/i2c1_master.c"
  3217 ;; Parameters:    Size  Location     Type
  3218 ;;		None
  3219 ;; Auto vars:     Size  Location     Type
  3220 ;;		None
  3221 ;; Return value:  Size  Location     Type
  3222 ;;                  1    wreg      void 
  3223 ;; Registers used:
  3224 ;;		None
  3225 ;; Tracked objects:
  3226 ;;		On entry : 0/0
  3227 ;;		On exit  : 0/0
  3228 ;;		Unchanged: 0/0
  3229 ;; Data sizes:     COMRAM   BANK0   BANK1   BANK2   BANK3   BANK4   BANK5   BANK6   BANK7   BANK8   BANK9  BANK10  BANK1
      +1  BANK12  BANK13
  3230 ;;      Params:         0       0       0       0       0       0       0       0       0       0       0       0       
      +0       0       0
  3231 ;;      Locals:         0       0       0       0       0       0       0       0       0       0       0       0       
      +0       0       0
  3232 ;;      Temps:          0       0       0       0       0       0       0       0       0       0       0       0       
      +0       0       0
  3233 ;;      Totals:         0       0       0       0       0       0       0       0       0       0       0       0       
      +0       0       0
  3234 ;;Total ram usage:        0 bytes
  3235 ;; Hardware stack levels used:    1
  3236 ;; This function calls:
  3237 ;;		Nothing
  3238 ;; This function is called by:
  3239 ;;		_I2C1_DO_TX_EMPTY
  3240 ;; This function uses a non-reentrant model
  3241 ;;
  3242                           
  3243                           	psect	text34
  3244  0019A6                     __ptext34:
  3245                           	callstack 0
  3246  0019A6                     _I2C1_MasterSetIrq:
  3247                           	callstack 21
  3248  0019A6                     
  3249                           ;mcc_generated_files/i2c1_master.c: 647:     PIR3bits.SSP1IF = 1;
  3250  0019A6  010E               	movlb	14	; () banked
  3251  0019A8  8136               	bsf	54,0,b	;volatile
  3252  0019AA                     
  3253                           ; BSR set to: 14
  3254  0019AA  0012               	return		;funcret
  3255  0019AC                     __end_of_I2C1_MasterSetIrq:
  3256                           	callstack 0
  3257                           
  3258 ;; *************** function _I2C1_MasterIsNack *****************
  3259 ;; Defined at:
  3260 ;;		line 598 in file "mcc_generated_files/i2c1_master.c"
  3261 ;; Parameters:    Size  Location     Type
  3262 ;;		None
  3263 ;; Auto vars:     Size  Location     Type
  3264 ;;		None
  3265 ;; Return value:  Size  Location     Type
  3266 ;;                  1    wreg      _Bool 
  3267 ;; Registers used:
  3268 ;;		wreg
  3269 ;; Tracked objects:
  3270 ;;		On entry : 0/0
  3271 ;;		On exit  : 0/0
  3272 ;;		Unchanged: 0/0
  3273 ;; Data sizes:     COMRAM   BANK0   BANK1   BANK2   BANK3   BANK4   BANK5   BANK6   BANK7   BANK8   BANK9  BANK10  BANK1
      +1  BANK12  BANK13
  3274 ;;      Params:         0       0       0       0       0       0       0       0       0       0       0       0       
      +0       0       0
  3275 ;;      Locals:         0       0       0       0       0       0       0       0       0       0       0       0       
      +0       0       0
  3276 ;;      Temps:          0       0       0       0       0       0       0       0       0       0       0       0       
      +0       0       0
  3277 ;;      Totals:         0       0       0       0       0       0       0       0       0       0       0       0       
      +0       0       0
  3278 ;;Total ram usage:        0 bytes
  3279 ;; Hardware stack levels used:    1
  3280 ;; This function calls:
  3281 ;;		Nothing
  3282 ;; This function is called by:
  3283 ;;		_I2C1_MasterFsm
  3284 ;;		_I2C1_DO_TX
  3285 ;; This function uses a non-reentrant model
  3286 ;;
  3287                           
  3288                           	psect	text35
  3289  0018DC                     __ptext35:
  3290                           	callstack 0
  3291  0018DC                     _I2C1_MasterIsNack:
  3292                           	callstack 22
  3293  0018DC                     
  3294                           ;mcc_generated_files/i2c1_master.c: 600:     return SSP1CON2bits.ACKSTAT;
  3295  0018DC  BC96               	btfsc	150,6,c	;volatile
  3296  0018DE  EF73  F00C         	goto	u621
  3297  0018E2  EF76  F00C         	goto	u620
  3298  0018E6                     u621:
  3299  0018E6  0E01               	movlw	1
  3300  0018E8  EF77  F00C         	goto	u626
  3301  0018EC                     u620:
  3302  0018EC  0E00               	movlw	0
  3303  0018EE                     u626:
  3304  0018EE  0012               	return		;funcret
  3305  0018F0                     __end_of_I2C1_MasterIsNack:
  3306                           	callstack 0
  3307                           
  3308 ;; *************** function _I2C1_MasterSendTxData *****************
  3309 ;; Defined at:
  3310 ;;		line 568 in file "mcc_generated_files/i2c1_master.c"
  3311 ;; Parameters:    Size  Location     Type
  3312 ;;  data            1    wreg     unsigned char 
  3313 ;; Auto vars:     Size  Location     Type
  3314 ;;  data            1    0[COMRAM] unsigned char 
  3315 ;; Return value:  Size  Location     Type
  3316 ;;                  1    wreg      void 
  3317 ;; Registers used:
  3318 ;;		wreg
  3319 ;; Tracked objects:
  3320 ;;		On entry : 0/0
  3321 ;;		On exit  : 0/0
  3322 ;;		Unchanged: 0/0
  3323 ;; Data sizes:     COMRAM   BANK0   BANK1   BANK2   BANK3   BANK4   BANK5   BANK6   BANK7   BANK8   BANK9  BANK10  BANK1
      +1  BANK12  BANK13
  3324 ;;      Params:         0       0       0       0       0       0       0       0       0       0       0       0       
      +0       0       0
  3325 ;;      Locals:         1       0       0       0       0       0       0       0       0       0       0       0       
      +0       0       0
  3326 ;;      Temps:          0       0       0       0       0       0       0       0       0       0       0       0       
      +0       0       0
  3327 ;;      Totals:         1       0       0       0       0       0       0       0       0       0       0       0       
      +0       0       0
  3328 ;;Total ram usage:        1 bytes
  3329 ;; Hardware stack levels used:    1
  3330 ;; This function calls:
  3331 ;;		Nothing
  3332 ;; This function is called by:
  3333 ;;		_I2C1_DO_SEND_ADR_READ
  3334 ;;		_I2C1_DO_SEND_ADR_WRITE
  3335 ;;		_I2C1_DO_TX
  3336 ;; This function uses a non-reentrant model
  3337 ;;
  3338                           
  3339                           	psect	text36
  3340  00199E                     __ptext36:
  3341                           	callstack 0
  3342  00199E                     _I2C1_MasterSendTxData:
  3343                           	callstack 21
  3344                           
  3345                           ;incstack = 0
  3346                           ;I2C1_MasterSendTxData@data stored from wreg
  3347  00199E  6E3F               	movwf	I2C1_MasterSendTxData@data^0,c
  3348  0019A0                     
  3349                           ;mcc_generated_files/i2c1_master.c: 568: static __attribute__((inline)) void I2C1_Master
      +                          SendTxData(uint8_t data);mcc_generated_files/i2c1_master.c: 569: {;mcc_generated_files/i
      +                          2c1_master.c: 570:     SSP1BUF = data;
  3350  0019A0  C03F  FF91         	movff	I2C1_MasterSendTxData@data,3985	;volatile
  3351  0019A4  0012               	return		;funcret
  3352  0019A6                     __end_of_I2C1_MasterSendTxData:
  3353                           	callstack 0
  3354                           
  3355 ;; *************** function _I2C1_MasterSendAck *****************
  3356 ;; Defined at:
  3357 ;;		line 603 in file "mcc_generated_files/i2c1_master.c"
  3358 ;; Parameters:    Size  Location     Type
  3359 ;;		None
  3360 ;; Auto vars:     Size  Location     Type
  3361 ;;		None
  3362 ;; Return value:  Size  Location     Type
  3363 ;;                  1    wreg      void 
  3364 ;; Registers used:
  3365 ;;		None
  3366 ;; Tracked objects:
  3367 ;;		On entry : 0/0
  3368 ;;		On exit  : 0/0
  3369 ;;		Unchanged: 0/0
  3370 ;; Data sizes:     COMRAM   BANK0   BANK1   BANK2   BANK3   BANK4   BANK5   BANK6   BANK7   BANK8   BANK9  BANK10  BANK1
      +1  BANK12  BANK13
  3371 ;;      Params:         0       0       0       0       0       0       0       0       0       0       0       0       
      +0       0       0
  3372 ;;      Locals:         0       0       0       0       0       0       0       0       0       0       0       0       
      +0       0       0
  3373 ;;      Temps:          0       0       0       0       0       0       0       0       0       0       0       0       
      +0       0       0
  3374 ;;      Totals:         0       0       0       0       0       0       0       0       0       0       0       0       
      +0       0       0
  3375 ;;Total ram usage:        0 bytes
  3376 ;; Hardware stack levels used:    1
  3377 ;; This function calls:
  3378 ;;		Nothing
  3379 ;; This function is called by:
  3380 ;;		_I2C1_DO_RX
  3381 ;;		_I2C1_DO_RX_ACK
  3382 ;; This function uses a non-reentrant model
  3383 ;;
  3384                           
  3385                           	psect	text37
  3386  0019AC                     __ptext37:
  3387                           	callstack 0
  3388  0019AC                     _I2C1_MasterSendAck:
  3389                           	callstack 21
  3390  0019AC                     
  3391                           ;mcc_generated_files/i2c1_master.c: 605:     SSP1CON2bits.ACKDT = 0;
  3392  0019AC  9A96               	bcf	150,5,c	;volatile
  3393                           
  3394                           ;mcc_generated_files/i2c1_master.c: 606:     SSP1CON2bits.ACKEN = 1;
  3395  0019AE  8896               	bsf	150,4,c	;volatile
  3396  0019B0  0012               	return		;funcret
  3397  0019B2                     __end_of_I2C1_MasterSendAck:
  3398                           	callstack 0
  3399                           
  3400 ;; *************** function _I2C1_MasterGetRxData *****************
  3401 ;; Defined at:
  3402 ;;		line 563 in file "mcc_generated_files/i2c1_master.c"
  3403 ;; Parameters:    Size  Location     Type
  3404 ;;		None
  3405 ;; Auto vars:     Size  Location     Type
  3406 ;;		None
  3407 ;; Return value:  Size  Location     Type
  3408 ;;                  1    wreg      unsigned char 
  3409 ;; Registers used:
  3410 ;;		wreg, status,2
  3411 ;; Tracked objects:
  3412 ;;		On entry : 0/0
  3413 ;;		On exit  : 0/0
  3414 ;;		Unchanged: 0/0
  3415 ;; Data sizes:     COMRAM   BANK0   BANK1   BANK2   BANK3   BANK4   BANK5   BANK6   BANK7   BANK8   BANK9  BANK10  BANK1
      +1  BANK12  BANK13
  3416 ;;      Params:         0       0       0       0       0       0       0       0       0       0       0       0       
      +0       0       0
  3417 ;;      Locals:         0       0       0       0       0       0       0       0       0       0       0       0       
      +0       0       0
  3418 ;;      Temps:          0       0       0       0       0       0       0       0       0       0       0       0       
      +0       0       0
  3419 ;;      Totals:         0       0       0       0       0       0       0       0       0       0       0       0       
      +0       0       0
  3420 ;;Total ram usage:        0 bytes
  3421 ;; Hardware stack levels used:    1
  3422 ;; This function calls:
  3423 ;;		Nothing
  3424 ;; This function is called by:
  3425 ;;		_I2C1_DO_RX
  3426 ;; This function uses a non-reentrant model
  3427 ;;
  3428                           
  3429                           	psect	text38
  3430  0019D0                     __ptext38:
  3431                           	callstack 0
  3432  0019D0                     _I2C1_MasterGetRxData:
  3433                           	callstack 21
  3434  0019D0                     
  3435                           ;mcc_generated_files/i2c1_master.c: 565:     return SSP1BUF;
  3436  0019D0  5091               	movf	145,w,c	;volatile
  3437  0019D2  0012               	return		;funcret
  3438  0019D4                     __end_of_I2C1_MasterGetRxData:
  3439                           	callstack 0
  3440                           
  3441 ;; *************** function _I2C1_MasterSendNack *****************
  3442 ;; Defined at:
  3443 ;;		line 609 in file "mcc_generated_files/i2c1_master.c"
  3444 ;; Parameters:    Size  Location     Type
  3445 ;;		None
  3446 ;; Auto vars:     Size  Location     Type
  3447 ;;		None
  3448 ;; Return value:  Size  Location     Type
  3449 ;;                  1    wreg      void 
  3450 ;; Registers used:
  3451 ;;		None
  3452 ;; Tracked objects:
  3453 ;;		On entry : 0/0
  3454 ;;		On exit  : 0/0
  3455 ;;		Unchanged: 0/0
  3456 ;; Data sizes:     COMRAM   BANK0   BANK1   BANK2   BANK3   BANK4   BANK5   BANK6   BANK7   BANK8   BANK9  BANK10  BANK1
      +1  BANK12  BANK13
  3457 ;;      Params:         0       0       0       0       0       0       0       0       0       0       0       0       
      +0       0       0
  3458 ;;      Locals:         0       0       0       0       0       0       0       0       0       0       0       0       
      +0       0       0
  3459 ;;      Temps:          0       0       0       0       0       0       0       0       0       0       0       0       
      +0       0       0
  3460 ;;      Totals:         0       0       0       0       0       0       0       0       0       0       0       0       
      +0       0       0
  3461 ;;Total ram usage:        0 bytes
  3462 ;; Hardware stack levels used:    1
  3463 ;; This function calls:
  3464 ;;		Nothing
  3465 ;; This function is called by:
  3466 ;;		_I2C1_DO_RX_NACK_STOP
  3467 ;;		_I2C1_DO_RX_NACK_RESTART
  3468 ;; This function uses a non-reentrant model
  3469 ;;
  3470                           
  3471                           	psect	text39
  3472  0019B2                     __ptext39:
  3473                           	callstack 0
  3474  0019B2                     _I2C1_MasterSendNack:
  3475                           	callstack 21
  3476  0019B2                     
  3477                           ;mcc_generated_files/i2c1_master.c: 611:     SSP1CON2bits.ACKDT = 1;
  3478  0019B2  8A96               	bsf	150,5,c	;volatile
  3479                           
  3480                           ;mcc_generated_files/i2c1_master.c: 612:     SSP1CON2bits.ACKEN = 1;
  3481  0019B4  8896               	bsf	150,4,c	;volatile
  3482  0019B6  0012               	return		;funcret
  3483  0019B8                     __end_of_I2C1_MasterSendNack:
  3484                           	callstack 0
  3485                           
  3486 ;; *************** function _I2C1_MasterStartRx *****************
  3487 ;; Defined at:
  3488 ;;		line 583 in file "mcc_generated_files/i2c1_master.c"
  3489 ;; Parameters:    Size  Location     Type
  3490 ;;		None
  3491 ;; Auto vars:     Size  Location     Type
  3492 ;;		None
  3493 ;; Return value:  Size  Location     Type
  3494 ;;                  1    wreg      void 
  3495 ;; Registers used:
  3496 ;;		None
  3497 ;; Tracked objects:
  3498 ;;		On entry : 0/0
  3499 ;;		On exit  : 0/0
  3500 ;;		Unchanged: 0/0
  3501 ;; Data sizes:     COMRAM   BANK0   BANK1   BANK2   BANK3   BANK4   BANK5   BANK6   BANK7   BANK8   BANK9  BANK10  BANK1
      +1  BANK12  BANK13
  3502 ;;      Params:         0       0       0       0       0       0       0       0       0       0       0       0       
      +0       0       0
  3503 ;;      Locals:         0       0       0       0       0       0       0       0       0       0       0       0       
      +0       0       0
  3504 ;;      Temps:          0       0       0       0       0       0       0       0       0       0       0       0       
      +0       0       0
  3505 ;;      Totals:         0       0       0       0       0       0       0       0       0       0       0       0       
      +0       0       0
  3506 ;;Total ram usage:        0 bytes
  3507 ;; Hardware stack levels used:    1
  3508 ;; This function calls:
  3509 ;;		Nothing
  3510 ;; This function is called by:
  3511 ;;		_I2C1_DO_RCEN
  3512 ;; This function uses a non-reentrant model
  3513 ;;
  3514                           
  3515                           	psect	text40
  3516  0019D4                     __ptext40:
  3517                           	callstack 0
  3518  0019D4                     _I2C1_MasterStartRx:
  3519                           	callstack 21
  3520  0019D4                     
  3521                           ;mcc_generated_files/i2c1_master.c: 585:     SSP1CON2bits.RCEN = 1;
  3522  0019D4  8696               	bsf	150,3,c	;volatile
  3523  0019D6  0012               	return		;funcret
  3524  0019D8                     __end_of_I2C1_MasterStartRx:
  3525                           	callstack 0
  3526                           
  3527 ;; *************** function _I2C1_CallbackReturnReset *****************
  3528 ;; Defined at:
  3529 ;;		line 525 in file "mcc_generated_files/i2c1_master.c"
  3530 ;; Parameters:    Size  Location     Type
  3531 ;;  funPtr          2   11[COMRAM] PTR void 
  3532 ;;		 -> I2C1_ReadDataBlock@bufferBlock(4), I2C1_Write2ByteRegister@data(2), I2C1_Write1ByteRegister@data(1), I2C1_Read2B
      +yteRegister@returnValue(2), 
  3533 ;;		 -> I2C1_Read1ByteRegister@returnValue(1), i2c_readDataBlock@d(4), i2c_write2ByteRegister@data(2), i2c_read2ByteRegi
      +ster@result(2), 
  3534 ;;		 -> i2c_read1ByteRegister@d2(1), i2c_write1ByteRegister@data(1), NULL(0), 
  3535 ;; Auto vars:     Size  Location     Type
  3536 ;;		None
  3537 ;; Return value:  Size  Location     Type
  3538 ;;                  1    wreg      enum E360
  3539 ;; Registers used:
  3540 ;;		wreg
  3541 ;; Tracked objects:
  3542 ;;		On entry : 0/0
  3543 ;;		On exit  : 0/0
  3544 ;;		Unchanged: 0/0
  3545 ;; Data sizes:     COMRAM   BANK0   BANK1   BANK2   BANK3   BANK4   BANK5   BANK6   BANK7   BANK8   BANK9  BANK10  BANK1
      +1  BANK12  BANK13
  3546 ;;      Params:         2       0       0       0       0       0       0       0       0       0       0       0       
      +0       0       0
  3547 ;;      Locals:         0       0       0       0       0       0       0       0       0       0       0       0       
      +0       0       0
  3548 ;;      Temps:          0       0       0       0       0       0       0       0       0       0       0       0       
      +0       0       0
  3549 ;;      Totals:         2       0       0       0       0       0       0       0       0       0       0       0       
      +0       0       0
  3550 ;;Total ram usage:        2 bytes
  3551 ;; Hardware stack levels used:    1
  3552 ;; This function calls:
  3553 ;;		Nothing
  3554 ;; This function is called by:
  3555 ;;		_I2C1_Open
  3556 ;;		_I2C1_DO_TX
  3557 ;;		_I2C1_DO_RX
  3558 ;;		_I2C1_DO_TX_EMPTY
  3559 ;;		_I2C1_DO_ADDRESS_NACK
  3560 ;;		_I2C1_DO_RX_EMPTY
  3561 ;; This function uses a non-reentrant model
  3562 ;;
  3563                           
  3564                           	psect	text41
  3565  0019D8                     __ptext41:
  3566                           	callstack 0
  3567  0019D8                     _I2C1_CallbackReturnReset:
  3568                           	callstack 21
  3569  0019D8                     
  3570                           ;mcc_generated_files/i2c1_master.c: 525: i2c1_operations_t I2C1_CallbackReturnReset(void
      +                           *funPtr);mcc_generated_files/i2c1_master.c: 526: {;mcc_generated_files/i2c1_master.c: 5
      +                          27:     return I2C1_RESET_LINK;
  3571  0019D8  0E05               	movlw	5
  3572  0019DA  0012               	return		;funcret
  3573  0019DC                     __end_of_I2C1_CallbackReturnReset:
  3574                           	callstack 0
  3575                           
  3576 ;; *************** function _I2C1_CallbackReturnStop *****************
  3577 ;; Defined at:
  3578 ;;		line 520 in file "mcc_generated_files/i2c1_master.c"
  3579 ;; Parameters:    Size  Location     Type
  3580 ;;  funPtr          2   11[COMRAM] PTR void 
  3581 ;;		 -> I2C1_ReadDataBlock@bufferBlock(4), I2C1_Write2ByteRegister@data(2), I2C1_Write1ByteRegister@data(1), I2C1_Read2B
      +yteRegister@returnValue(2), 
  3582 ;;		 -> I2C1_Read1ByteRegister@returnValue(1), i2c_readDataBlock@d(4), i2c_write2ByteRegister@data(2), i2c_read2ByteRegi
      +ster@result(2), 
  3583 ;;		 -> i2c_read1ByteRegister@d2(1), i2c_write1ByteRegister@data(1), NULL(0), 
  3584 ;; Auto vars:     Size  Location     Type
  3585 ;;		None
  3586 ;; Return value:  Size  Location     Type
  3587 ;;                  1    wreg      enum E360
  3588 ;; Registers used:
  3589 ;;		wreg
  3590 ;; Tracked objects:
  3591 ;;		On entry : 0/0
  3592 ;;		On exit  : 0/0
  3593 ;;		Unchanged: 0/0
  3594 ;; Data sizes:     COMRAM   BANK0   BANK1   BANK2   BANK3   BANK4   BANK5   BANK6   BANK7   BANK8   BANK9  BANK10  BANK1
      +1  BANK12  BANK13
  3595 ;;      Params:         2       0       0       0       0       0       0       0       0       0       0       0       
      +0       0       0
  3596 ;;      Locals:         0       0       0       0       0       0       0       0       0       0       0       0       
      +0       0       0
  3597 ;;      Temps:          0       0       0       0       0       0       0       0       0       0       0       0       
      +0       0       0
  3598 ;;      Totals:         2       0       0       0       0       0       0       0       0       0       0       0       
      +0       0       0
  3599 ;;Total ram usage:        2 bytes
  3600 ;; Hardware stack levels used:    1
  3601 ;; This function calls:
  3602 ;;		Nothing
  3603 ;; This function is called by:
  3604 ;;		_I2C1_Open
  3605 ;;		_I2C1_SetCallback
  3606 ;;		_I2C1_DO_TX
  3607 ;;		_I2C1_DO_RX
  3608 ;;		_I2C1_DO_TX_EMPTY
  3609 ;;		_I2C1_DO_ADDRESS_NACK
  3610 ;;		_I2C1_DO_RX_EMPTY
  3611 ;; This function uses a non-reentrant model
  3612 ;;
  3613                           
  3614                           	psect	text42
  3615  0019DC                     __ptext42:
  3616                           	callstack 0
  3617  0019DC                     _I2C1_CallbackReturnStop:
  3618                           	callstack 21
  3619  0019DC                     
  3620                           ;mcc_generated_files/i2c1_master.c: 520: i2c1_operations_t I2C1_CallbackReturnStop(void 
      +                          *funPtr);mcc_generated_files/i2c1_master.c: 521: {;mcc_generated_files/i2c1_master.c: 52
      +                          2:     return I2C1_STOP;
  3621  0019DC  0E01               	movlw	1
  3622  0019DE  0012               	return		;funcret
  3623  0019E0                     __end_of_I2C1_CallbackReturnStop:
  3624                           	callstack 0
  3625                           
  3626 ;; *************** function _rdBlkRegCompleteHandler@i2c1_master_example$F179 *****************
  3627 ;; Defined at:
  3628 ;;		line 170 in file "mcc_generated_files/examples/i2c1_master_example.c"
  3629 ;; Parameters:    Size  Location     Type
  3630 ;;  ptr             2   11[COMRAM] PTR void 
  3631 ;;		 -> I2C1_ReadDataBlock@bufferBlock(4), I2C1_Write2ByteRegister@data(2), I2C1_Write1ByteRegister@data(1), I2C1_Read2B
      +yteRegister@returnValue(2), 
  3632 ;;		 -> I2C1_Read1ByteRegister@returnValue(1), i2c_readDataBlock@d(4), i2c_write2ByteRegister@data(2), i2c_read2ByteRegi
      +ster@result(2), 
  3633 ;;		 -> i2c_read1ByteRegister@d2(1), i2c_write1ByteRegister@data(1), NULL(0), 
  3634 ;; Auto vars:     Size  Location     Type
  3635 ;;		None
  3636 ;; Return value:  Size  Location     Type
  3637 ;;                  1    wreg      enum E360
  3638 ;; Registers used:
  3639 ;;		wreg, fsr2l, fsr2h, status,2, status,0, prodl, prodh, cstack
  3640 ;; Tracked objects:
  3641 ;;		On entry : 0/0
  3642 ;;		On exit  : 0/0
  3643 ;;		Unchanged: 0/0
  3644 ;; Data sizes:     COMRAM   BANK0   BANK1   BANK2   BANK3   BANK4   BANK5   BANK6   BANK7   BANK8   BANK9  BANK10  BANK1
      +1  BANK12  BANK13
  3645 ;;      Params:         2       0       0       0       0       0       0       0       0       0       0       0       
      +0       0       0
  3646 ;;      Locals:         0       0       0       0       0       0       0       0       0       0       0       0       
      +0       0       0
  3647 ;;      Temps:          0       0       0       0       0       0       0       0       0       0       0       0       
      +0       0       0
  3648 ;;      Totals:         2       0       0       0       0       0       0       0       0       0       0       0       
      +0       0       0
  3649 ;;Total ram usage:        2 bytes
  3650 ;; Hardware stack levels used:    1
  3651 ;; Hardware stack levels required when called:    2
  3652 ;; This function calls:
  3653 ;;		_I2C1_SetBuffer
  3654 ;;		_I2C1_SetDataCompleteCallback
  3655 ;; This function is called by:
  3656 ;;		_I2C1_ReadDataBlock
  3657 ;;		_I2C1_DO_TX
  3658 ;;		_I2C1_DO_RX
  3659 ;;		_I2C1_DO_TX_EMPTY
  3660 ;;		_I2C1_DO_ADDRESS_NACK
  3661 ;;		_I2C1_DO_RX_EMPTY
  3662 ;; This function uses a non-reentrant model
  3663 ;;
  3664                           
  3665                           	psect	text43
  3666  0014F6                     __ptext43:
  3667                           	callstack 0
  3668  0014F6                     _rdBlkRegCompleteHandler@i2c1_master_example$F179:
  3669                           	callstack 19
  3670  0014F6                     
  3671                           ;mcc_generated_files/examples/i2c1_master_example.c: 170: static i2c1_operations_t rdBlk
      +                          RegCompleteHandler(void *ptr);mcc_generated_files/examples/i2c1_master_example.c: 171: {
      +                          ;mcc_generated_files/examples/i2c1_master_example.c: 172:     I2C1_SetBuffer(((i2c1_buff
      +                          er_t *)ptr)->data,((i2c1_buffer_t*)ptr)->len);
  3672  0014F6  EE20 F002          	lfsr	2,2
  3673  0014FA  504A               	movf	rdBlkRegCompleteHandler@i2c1_master_example$F179@ptr^0,w,c
  3674  0014FC  26D9               	addwf	fsr2l,f,c
  3675  0014FE  504B               	movf	(rdBlkRegCompleteHandler@i2c1_master_example$F179@ptr+1)^0,w,c
  3676  001500  22DA               	addwfc	fsr2h,f,c
  3677  001502  CFDE F03F          	movff	postinc2,I2C1_SetBuffer@buffer
  3678  001506  CFDD F040          	movff	postdec2,I2C1_SetBuffer@buffer+1
  3679  00150A  C04A  FFD9         	movff	rdBlkRegCompleteHandler@i2c1_master_example$F179@ptr,fsr2l
  3680  00150E  C04B  FFDA         	movff	rdBlkRegCompleteHandler@i2c1_master_example$F179@ptr+1,fsr2h
  3681  001512  CFDE F041          	movff	postinc2,I2C1_SetBuffer@bufferSize
  3682  001516  CFDD F042          	movff	postdec2,I2C1_SetBuffer@bufferSize+1
  3683  00151A  ECF6  F00B         	call	_I2C1_SetBuffer	;wreg free
  3684  00151E                     
  3685                           ;mcc_generated_files/examples/i2c1_master_example.c: 173:     I2C1_SetDataCompleteCallba
      +                          ck(((void*)0),((void*)0));
  3686  00151E  0E00               	movlw	0
  3687  001520  6E45               	movwf	I2C1_SetDataCompleteCallback@cb^0,c
  3688  001522  0E00               	movlw	0
  3689  001524  6E46               	movwf	(I2C1_SetDataCompleteCallback@cb+1)^0,c
  3690  001526  0E00               	movlw	0
  3691  001528  6E47               	movwf	(I2C1_SetDataCompleteCallback@cb+2)^0,c
  3692  00152A  0E00               	movlw	0
  3693  00152C  6E48               	movwf	I2C1_SetDataCompleteCallback@ptr^0,c
  3694  00152E  0E00               	movlw	0
  3695  001530  6E49               	movwf	(I2C1_SetDataCompleteCallback@ptr+1)^0,c
  3696  001532  EC23  F00C         	call	_I2C1_SetDataCompleteCallback	;wreg free
  3697  001536                     
  3698                           ;mcc_generated_files/examples/i2c1_master_example.c: 174:     return I2C1_RESTART_READ;
  3699  001536  0E02               	movlw	2
  3700  001538  0012               	return		;funcret
  3701  00153A                     __end_of_rdBlkRegCompleteHandler@i2c1_master_example$F179:
  3702                           	callstack 0
  3703                           
  3704 ;; *************** function _wr1RegCompleteHandler@i2c1_master_example$F162 *****************
  3705 ;; Defined at:
  3706 ;;		line 156 in file "mcc_generated_files/examples/i2c1_master_example.c"
  3707 ;; Parameters:    Size  Location     Type
  3708 ;;  ptr             2   11[COMRAM] PTR void 
  3709 ;;		 -> I2C1_ReadDataBlock@bufferBlock(4), I2C1_Write2ByteRegister@data(2), I2C1_Write1ByteRegister@data(1), I2C1_Read2B
      +yteRegister@returnValue(2), 
  3710 ;;		 -> I2C1_Read1ByteRegister@returnValue(1), i2c_readDataBlock@d(4), i2c_write2ByteRegister@data(2), i2c_read2ByteRegi
      +ster@result(2), 
  3711 ;;		 -> i2c_read1ByteRegister@d2(1), i2c_write1ByteRegister@data(1), NULL(0), 
  3712 ;; Auto vars:     Size  Location     Type
  3713 ;;		None
  3714 ;; Return value:  Size  Location     Type
  3715 ;;                  1    wreg      enum E360
  3716 ;; Registers used:
  3717 ;;		wreg, fsr2l, fsr2h, status,2, status,0, prodl, prodh, cstack
  3718 ;; Tracked objects:
  3719 ;;		On entry : 0/0
  3720 ;;		On exit  : 0/0
  3721 ;;		Unchanged: 0/0
  3722 ;; Data sizes:     COMRAM   BANK0   BANK1   BANK2   BANK3   BANK4   BANK5   BANK6   BANK7   BANK8   BANK9  BANK10  BANK1
      +1  BANK12  BANK13
  3723 ;;      Params:         2       0       0       0       0       0       0       0       0       0       0       0       
      +0       0       0
  3724 ;;      Locals:         0       0       0       0       0       0       0       0       0       0       0       0       
      +0       0       0
  3725 ;;      Temps:          0       0       0       0       0       0       0       0       0       0       0       0       
      +0       0       0
  3726 ;;      Totals:         2       0       0       0       0       0       0       0       0       0       0       0       
      +0       0       0
  3727 ;;Total ram usage:        2 bytes
  3728 ;; Hardware stack levels used:    1
  3729 ;; Hardware stack levels required when called:    2
  3730 ;; This function calls:
  3731 ;;		_I2C1_SetBuffer
  3732 ;;		_I2C1_SetDataCompleteCallback
  3733 ;; This function is called by:
  3734 ;;		_I2C1_Write1ByteRegister
  3735 ;;		_I2C1_DO_TX
  3736 ;;		_I2C1_DO_RX
  3737 ;;		_I2C1_DO_TX_EMPTY
  3738 ;;		_I2C1_DO_ADDRESS_NACK
  3739 ;;		_I2C1_DO_RX_EMPTY
  3740 ;; This function uses a non-reentrant model
  3741 ;;
  3742                           
  3743                           	psect	text44
  3744  0015FE                     __ptext44:
  3745                           	callstack 0
  3746  0015FE                     _wr1RegCompleteHandler@i2c1_master_example$F162:
  3747                           	callstack 19
  3748  0015FE                     
  3749                           ;mcc_generated_files/examples/i2c1_master_example.c: 156: static i2c1_operations_t wr1Re
      +                          gCompleteHandler(void *ptr);mcc_generated_files/examples/i2c1_master_example.c: 157: {;m
      +                          cc_generated_files/examples/i2c1_master_example.c: 158:     I2C1_SetBuffer(ptr,1);
  3750  0015FE  C04A  F03F         	movff	wr1RegCompleteHandler@i2c1_master_example$F162@ptr,I2C1_SetBuffer@buffer
  3751  001602  C04B  F040         	movff	wr1RegCompleteHandler@i2c1_master_example$F162@ptr+1,I2C1_SetBuffer@buffer+1
  3752  001606  0E00               	movlw	0
  3753  001608  6E42               	movwf	(I2C1_SetBuffer@bufferSize+1)^0,c
  3754  00160A  0E01               	movlw	1
  3755  00160C  6E41               	movwf	I2C1_SetBuffer@bufferSize^0,c
  3756  00160E  ECF6  F00B         	call	_I2C1_SetBuffer	;wreg free
  3757  001612                     
  3758                           ;mcc_generated_files/examples/i2c1_master_example.c: 159:     I2C1_SetDataCompleteCallba
      +                          ck(((void*)0),((void*)0));
  3759  001612  0E00               	movlw	0
  3760  001614  6E45               	movwf	I2C1_SetDataCompleteCallback@cb^0,c
  3761  001616  0E00               	movlw	0
  3762  001618  6E46               	movwf	(I2C1_SetDataCompleteCallback@cb+1)^0,c
  3763  00161A  0E00               	movlw	0
  3764  00161C  6E47               	movwf	(I2C1_SetDataCompleteCallback@cb+2)^0,c
  3765  00161E  0E00               	movlw	0
  3766  001620  6E48               	movwf	I2C1_SetDataCompleteCallback@ptr^0,c
  3767  001622  0E00               	movlw	0
  3768  001624  6E49               	movwf	(I2C1_SetDataCompleteCallback@ptr+1)^0,c
  3769  001626  EC23  F00C         	call	_I2C1_SetDataCompleteCallback	;wreg free
  3770  00162A                     
  3771                           ;mcc_generated_files/examples/i2c1_master_example.c: 160:     return I2C1_CONTINUE;
  3772  00162A  0E04               	movlw	4
  3773  00162C  0012               	return		;funcret
  3774  00162E                     __end_of_wr1RegCompleteHandler@i2c1_master_example$F162:
  3775                           	callstack 0
  3776                           
  3777 ;; *************** function _rd2RegCompleteHandler@i2c1_master_example$F156 *****************
  3778 ;; Defined at:
  3779 ;;		line 149 in file "mcc_generated_files/examples/i2c1_master_example.c"
  3780 ;; Parameters:    Size  Location     Type
  3781 ;;  ptr             2   11[COMRAM] PTR void 
  3782 ;;		 -> I2C1_ReadDataBlock@bufferBlock(4), I2C1_Write2ByteRegister@data(2), I2C1_Write1ByteRegister@data(1), I2C1_Read2B
      +yteRegister@returnValue(2), 
  3783 ;;		 -> I2C1_Read1ByteRegister@returnValue(1), i2c_readDataBlock@d(4), i2c_write2ByteRegister@data(2), i2c_read2ByteRegi
      +ster@result(2), 
  3784 ;;		 -> i2c_read1ByteRegister@d2(1), i2c_write1ByteRegister@data(1), NULL(0), 
  3785 ;; Auto vars:     Size  Location     Type
  3786 ;;		None
  3787 ;; Return value:  Size  Location     Type
  3788 ;;                  1    wreg      enum E360
  3789 ;; Registers used:
  3790 ;;		wreg, fsr2l, fsr2h, status,2, status,0, prodl, prodh, cstack
  3791 ;; Tracked objects:
  3792 ;;		On entry : 0/0
  3793 ;;		On exit  : 0/0
  3794 ;;		Unchanged: 0/0
  3795 ;; Data sizes:     COMRAM   BANK0   BANK1   BANK2   BANK3   BANK4   BANK5   BANK6   BANK7   BANK8   BANK9  BANK10  BANK1
      +1  BANK12  BANK13
  3796 ;;      Params:         2       0       0       0       0       0       0       0       0       0       0       0       
      +0       0       0
  3797 ;;      Locals:         0       0       0       0       0       0       0       0       0       0       0       0       
      +0       0       0
  3798 ;;      Temps:          0       0       0       0       0       0       0       0       0       0       0       0       
      +0       0       0
  3799 ;;      Totals:         2       0       0       0       0       0       0       0       0       0       0       0       
      +0       0       0
  3800 ;;Total ram usage:        2 bytes
  3801 ;; Hardware stack levels used:    1
  3802 ;; Hardware stack levels required when called:    2
  3803 ;; This function calls:
  3804 ;;		_I2C1_SetBuffer
  3805 ;;		_I2C1_SetDataCompleteCallback
  3806 ;; This function is called by:
  3807 ;;		_I2C1_Read2ByteRegister
  3808 ;;		_I2C1_DO_TX
  3809 ;;		_I2C1_DO_RX
  3810 ;;		_I2C1_DO_TX_EMPTY
  3811 ;;		_I2C1_DO_ADDRESS_NACK
  3812 ;;		_I2C1_DO_RX_EMPTY
  3813 ;; This function uses a non-reentrant model
  3814 ;;
  3815                           
  3816                           	psect	text45
  3817  00162E                     __ptext45:
  3818                           	callstack 0
  3819  00162E                     _rd2RegCompleteHandler@i2c1_master_example$F156:
  3820                           	callstack 19
  3821  00162E                     
  3822                           ;mcc_generated_files/examples/i2c1_master_example.c: 149: static i2c1_operations_t rd2Re
      +                          gCompleteHandler(void *ptr);mcc_generated_files/examples/i2c1_master_example.c: 150: {;m
      +                          cc_generated_files/examples/i2c1_master_example.c: 151:     I2C1_SetBuffer(ptr,2);
  3823  00162E  C04A  F03F         	movff	rd2RegCompleteHandler@i2c1_master_example$F156@ptr,I2C1_SetBuffer@buffer
  3824  001632  C04B  F040         	movff	rd2RegCompleteHandler@i2c1_master_example$F156@ptr+1,I2C1_SetBuffer@buffer+1
  3825  001636  0E00               	movlw	0
  3826  001638  6E42               	movwf	(I2C1_SetBuffer@bufferSize+1)^0,c
  3827  00163A  0E02               	movlw	2
  3828  00163C  6E41               	movwf	I2C1_SetBuffer@bufferSize^0,c
  3829  00163E  ECF6  F00B         	call	_I2C1_SetBuffer	;wreg free
  3830  001642                     
  3831                           ;mcc_generated_files/examples/i2c1_master_example.c: 152:     I2C1_SetDataCompleteCallba
      +                          ck(((void*)0),((void*)0));
  3832  001642  0E00               	movlw	0
  3833  001644  6E45               	movwf	I2C1_SetDataCompleteCallback@cb^0,c
  3834  001646  0E00               	movlw	0
  3835  001648  6E46               	movwf	(I2C1_SetDataCompleteCallback@cb+1)^0,c
  3836  00164A  0E00               	movlw	0
  3837  00164C  6E47               	movwf	(I2C1_SetDataCompleteCallback@cb+2)^0,c
  3838  00164E  0E00               	movlw	0
  3839  001650  6E48               	movwf	I2C1_SetDataCompleteCallback@ptr^0,c
  3840  001652  0E00               	movlw	0
  3841  001654  6E49               	movwf	(I2C1_SetDataCompleteCallback@ptr+1)^0,c
  3842  001656  EC23  F00C         	call	_I2C1_SetDataCompleteCallback	;wreg free
  3843  00165A                     
  3844                           ;mcc_generated_files/examples/i2c1_master_example.c: 153:     return I2C1_RESTART_READ;
  3845  00165A  0E02               	movlw	2
  3846  00165C  0012               	return		;funcret
  3847  00165E                     __end_of_rd2RegCompleteHandler@i2c1_master_example$F156:
  3848                           	callstack 0
  3849                           
  3850 ;; *************** function _rd1RegCompleteHandler@i2c1_master_example$F145 *****************
  3851 ;; Defined at:
  3852 ;;		line 142 in file "mcc_generated_files/examples/i2c1_master_example.c"
  3853 ;; Parameters:    Size  Location     Type
  3854 ;;  ptr             2   11[COMRAM] PTR void 
  3855 ;;		 -> I2C1_ReadDataBlock@bufferBlock(4), I2C1_Write2ByteRegister@data(2), I2C1_Write1ByteRegister@data(1), I2C1_Read2B
      +yteRegister@returnValue(2), 
  3856 ;;		 -> I2C1_Read1ByteRegister@returnValue(1), i2c_readDataBlock@d(4), i2c_write2ByteRegister@data(2), i2c_read2ByteRegi
      +ster@result(2), 
  3857 ;;		 -> i2c_read1ByteRegister@d2(1), i2c_write1ByteRegister@data(1), NULL(0), 
  3858 ;; Auto vars:     Size  Location     Type
  3859 ;;		None
  3860 ;; Return value:  Size  Location     Type
  3861 ;;                  1    wreg      enum E360
  3862 ;; Registers used:
  3863 ;;		wreg, fsr2l, fsr2h, status,2, status,0, prodl, prodh, cstack
  3864 ;; Tracked objects:
  3865 ;;		On entry : 0/0
  3866 ;;		On exit  : 0/0
  3867 ;;		Unchanged: 0/0
  3868 ;; Data sizes:     COMRAM   BANK0   BANK1   BANK2   BANK3   BANK4   BANK5   BANK6   BANK7   BANK8   BANK9  BANK10  BANK1
      +1  BANK12  BANK13
  3869 ;;      Params:         2       0       0       0       0       0       0       0       0       0       0       0       
      +0       0       0
  3870 ;;      Locals:         0       0       0       0       0       0       0       0       0       0       0       0       
      +0       0       0
  3871 ;;      Temps:          0       0       0       0       0       0       0       0       0       0       0       0       
      +0       0       0
  3872 ;;      Totals:         2       0       0       0       0       0       0       0       0       0       0       0       
      +0       0       0
  3873 ;;Total ram usage:        2 bytes
  3874 ;; Hardware stack levels used:    1
  3875 ;; Hardware stack levels required when called:    2
  3876 ;; This function calls:
  3877 ;;		_I2C1_SetBuffer
  3878 ;;		_I2C1_SetDataCompleteCallback
  3879 ;; This function is called by:
  3880 ;;		_I2C1_Read1ByteRegister
  3881 ;;		_I2C1_DO_TX
  3882 ;;		_I2C1_DO_RX
  3883 ;;		_I2C1_DO_TX_EMPTY
  3884 ;;		_I2C1_DO_ADDRESS_NACK
  3885 ;;		_I2C1_DO_RX_EMPTY
  3886 ;; This function uses a non-reentrant model
  3887 ;;
  3888                           
  3889                           	psect	text46
  3890  00165E                     __ptext46:
  3891                           	callstack 0
  3892  00165E                     _rd1RegCompleteHandler@i2c1_master_example$F145:
  3893                           	callstack 19
  3894  00165E                     
  3895                           ;mcc_generated_files/examples/i2c1_master_example.c: 142: static i2c1_operations_t rd1Re
      +                          gCompleteHandler(void *ptr);mcc_generated_files/examples/i2c1_master_example.c: 143: {;m
      +                          cc_generated_files/examples/i2c1_master_example.c: 144:     I2C1_SetBuffer(ptr,1);
  3896  00165E  C04A  F03F         	movff	rd1RegCompleteHandler@i2c1_master_example$F145@ptr,I2C1_SetBuffer@buffer
  3897  001662  C04B  F040         	movff	rd1RegCompleteHandler@i2c1_master_example$F145@ptr+1,I2C1_SetBuffer@buffer+1
  3898  001666  0E00               	movlw	0
  3899  001668  6E42               	movwf	(I2C1_SetBuffer@bufferSize+1)^0,c
  3900  00166A  0E01               	movlw	1
  3901  00166C  6E41               	movwf	I2C1_SetBuffer@bufferSize^0,c
  3902  00166E  ECF6  F00B         	call	_I2C1_SetBuffer	;wreg free
  3903  001672                     
  3904                           ;mcc_generated_files/examples/i2c1_master_example.c: 145:     I2C1_SetDataCompleteCallba
      +                          ck(((void*)0),((void*)0));
  3905  001672  0E00               	movlw	0
  3906  001674  6E45               	movwf	I2C1_SetDataCompleteCallback@cb^0,c
  3907  001676  0E00               	movlw	0
  3908  001678  6E46               	movwf	(I2C1_SetDataCompleteCallback@cb+1)^0,c
  3909  00167A  0E00               	movlw	0
  3910  00167C  6E47               	movwf	(I2C1_SetDataCompleteCallback@cb+2)^0,c
  3911  00167E  0E00               	movlw	0
  3912  001680  6E48               	movwf	I2C1_SetDataCompleteCallback@ptr^0,c
  3913  001682  0E00               	movlw	0
  3914  001684  6E49               	movwf	(I2C1_SetDataCompleteCallback@ptr+1)^0,c
  3915  001686  EC23  F00C         	call	_I2C1_SetDataCompleteCallback	;wreg free
  3916  00168A                     
  3917                           ;mcc_generated_files/examples/i2c1_master_example.c: 146:     return I2C1_RESTART_READ;
  3918  00168A  0E02               	movlw	2
  3919  00168C  0012               	return		;funcret
  3920  00168E                     __end_of_rd1RegCompleteHandler@i2c1_master_example$F145:
  3921                           	callstack 0
  3922                           
  3923 ;; *************** function _rdBlkRegCompleteHandler *****************
  3924 ;; Defined at:
  3925 ;;		line 185 in file "mcc_generated_files/drivers/i2c_simple_master.c"
  3926 ;; Parameters:    Size  Location     Type
  3927 ;;  p               2   11[COMRAM] PTR void 
  3928 ;;		 -> I2C1_ReadDataBlock@bufferBlock(4), I2C1_Write2ByteRegister@data(2), I2C1_Write1ByteRegister@data(1), I2C1_Read2B
      +yteRegister@returnValue(2), 
  3929 ;;		 -> I2C1_Read1ByteRegister@returnValue(1), i2c_readDataBlock@d(4), i2c_write2ByteRegister@data(2), i2c_read2ByteRegi
      +ster@result(2), 
  3930 ;;		 -> i2c_read1ByteRegister@d2(1), i2c_write1ByteRegister@data(1), NULL(0), 
  3931 ;; Auto vars:     Size  Location     Type
  3932 ;;		None
  3933 ;; Return value:  Size  Location     Type
  3934 ;;                  1    wreg      enum E360
  3935 ;; Registers used:
  3936 ;;		wreg, fsr2l, fsr2h, status,2, status,0, prodl, prodh, cstack
  3937 ;; Tracked objects:
  3938 ;;		On entry : 0/0
  3939 ;;		On exit  : 0/0
  3940 ;;		Unchanged: 0/0
  3941 ;; Data sizes:     COMRAM   BANK0   BANK1   BANK2   BANK3   BANK4   BANK5   BANK6   BANK7   BANK8   BANK9  BANK10  BANK1
      +1  BANK12  BANK13
  3942 ;;      Params:         2       0       0       0       0       0       0       0       0       0       0       0       
      +0       0       0
  3943 ;;      Locals:         0       0       0       0       0       0       0       0       0       0       0       0       
      +0       0       0
  3944 ;;      Temps:          0       0       0       0       0       0       0       0       0       0       0       0       
      +0       0       0
  3945 ;;      Totals:         2       0       0       0       0       0       0       0       0       0       0       0       
      +0       0       0
  3946 ;;Total ram usage:        2 bytes
  3947 ;; Hardware stack levels used:    1
  3948 ;; Hardware stack levels required when called:    2
  3949 ;; This function calls:
  3950 ;;		_I2C1_SetBuffer
  3951 ;;		_I2C1_SetDataCompleteCallback
  3952 ;; This function is called by:
  3953 ;;		_i2c_readDataBlock
  3954 ;;		_I2C1_DO_TX
  3955 ;;		_I2C1_DO_RX
  3956 ;;		_I2C1_DO_TX_EMPTY
  3957 ;;		_I2C1_DO_ADDRESS_NACK
  3958 ;;		_I2C1_DO_RX_EMPTY
  3959 ;; This function uses a non-reentrant model
  3960 ;;
  3961                           
  3962                           	psect	text47
  3963  00153A                     __ptext47:
  3964                           	callstack 0
  3965  00153A                     _rdBlkRegCompleteHandler:
  3966                           	callstack 19
  3967  00153A                     
  3968                           ;mcc_generated_files/drivers/i2c_simple_master.c: 185: static i2c1_operations_t rdBlkReg
      +                          CompleteHandler(void *p);mcc_generated_files/drivers/i2c_simple_master.c: 186: {;mcc_gen
      +                          erated_files/drivers/i2c_simple_master.c: 187:     I2C1_SetBuffer(((buf_t *)p)->data,((b
      +                          uf_t*)p)->len);
  3969  00153A  EE20 F002          	lfsr	2,2
  3970  00153E  504A               	movf	rdBlkRegCompleteHandler@p^0,w,c
  3971  001540  26D9               	addwf	fsr2l,f,c
  3972  001542  504B               	movf	(rdBlkRegCompleteHandler@p+1)^0,w,c
  3973  001544  22DA               	addwfc	fsr2h,f,c
  3974  001546  CFDE F03F          	movff	postinc2,I2C1_SetBuffer@buffer
  3975  00154A  CFDD F040          	movff	postdec2,I2C1_SetBuffer@buffer+1
  3976  00154E  C04A  FFD9         	movff	rdBlkRegCompleteHandler@p,fsr2l
  3977  001552  C04B  FFDA         	movff	rdBlkRegCompleteHandler@p+1,fsr2h
  3978  001556  CFDE F041          	movff	postinc2,I2C1_SetBuffer@bufferSize
  3979  00155A  CFDD F042          	movff	postdec2,I2C1_SetBuffer@bufferSize+1
  3980  00155E  ECF6  F00B         	call	_I2C1_SetBuffer	;wreg free
  3981  001562                     
  3982                           ;mcc_generated_files/drivers/i2c_simple_master.c: 188:     I2C1_SetDataCompleteCallback(
      +                          ((void*)0),((void*)0));
  3983  001562  0E00               	movlw	0
  3984  001564  6E45               	movwf	I2C1_SetDataCompleteCallback@cb^0,c
  3985  001566  0E00               	movlw	0
  3986  001568  6E46               	movwf	(I2C1_SetDataCompleteCallback@cb+1)^0,c
  3987  00156A  0E00               	movlw	0
  3988  00156C  6E47               	movwf	(I2C1_SetDataCompleteCallback@cb+2)^0,c
  3989  00156E  0E00               	movlw	0
  3990  001570  6E48               	movwf	I2C1_SetDataCompleteCallback@ptr^0,c
  3991  001572  0E00               	movlw	0
  3992  001574  6E49               	movwf	(I2C1_SetDataCompleteCallback@ptr+1)^0,c
  3993  001576  EC23  F00C         	call	_I2C1_SetDataCompleteCallback	;wreg free
  3994  00157A                     
  3995                           ;mcc_generated_files/drivers/i2c_simple_master.c: 189:     return I2C1_RESTART_READ;
  3996  00157A  0E02               	movlw	2
  3997  00157C  0012               	return		;funcret
  3998  00157E                     __end_of_rdBlkRegCompleteHandler:
  3999                           	callstack 0
  4000                           
  4001 ;; *************** function _wr2RegCompleteHandler *****************
  4002 ;; Defined at:
  4003 ;;		line 151 in file "mcc_generated_files/drivers/i2c_simple_master.c"
  4004 ;; Parameters:    Size  Location     Type
  4005 ;;  p               2   11[COMRAM] PTR void 
  4006 ;;		 -> I2C1_ReadDataBlock@bufferBlock(4), I2C1_Write2ByteRegister@data(2), I2C1_Write1ByteRegister@data(1), I2C1_Read2B
      +yteRegister@returnValue(2), 
  4007 ;;		 -> I2C1_Read1ByteRegister@returnValue(1), i2c_readDataBlock@d(4), i2c_write2ByteRegister@data(2), i2c_read2ByteRegi
      +ster@result(2), 
  4008 ;;		 -> i2c_read1ByteRegister@d2(1), i2c_write1ByteRegister@data(1), NULL(0), 
  4009 ;; Auto vars:     Size  Location     Type
  4010 ;;		None
  4011 ;; Return value:  Size  Location     Type
  4012 ;;                  1    wreg      enum E360
  4013 ;; Registers used:
  4014 ;;		wreg, fsr2l, fsr2h, status,2, status,0, prodl, prodh, cstack
  4015 ;; Tracked objects:
  4016 ;;		On entry : 0/0
  4017 ;;		On exit  : 0/0
  4018 ;;		Unchanged: 0/0
  4019 ;; Data sizes:     COMRAM   BANK0   BANK1   BANK2   BANK3   BANK4   BANK5   BANK6   BANK7   BANK8   BANK9  BANK10  BANK1
      +1  BANK12  BANK13
  4020 ;;      Params:         2       0       0       0       0       0       0       0       0       0       0       0       
      +0       0       0
  4021 ;;      Locals:         0       0       0       0       0       0       0       0       0       0       0       0       
      +0       0       0
  4022 ;;      Temps:          0       0       0       0       0       0       0       0       0       0       0       0       
      +0       0       0
  4023 ;;      Totals:         2       0       0       0       0       0       0       0       0       0       0       0       
      +0       0       0
  4024 ;;Total ram usage:        2 bytes
  4025 ;; Hardware stack levels used:    1
  4026 ;; Hardware stack levels required when called:    2
  4027 ;; This function calls:
  4028 ;;		_I2C1_SetBuffer
  4029 ;;		_I2C1_SetDataCompleteCallback
  4030 ;; This function is called by:
  4031 ;;		_i2c_write2ByteRegister
  4032 ;;		_I2C1_DO_TX
  4033 ;;		_I2C1_DO_RX
  4034 ;;		_I2C1_DO_TX_EMPTY
  4035 ;;		_I2C1_DO_ADDRESS_NACK
  4036 ;;		_I2C1_DO_RX_EMPTY
  4037 ;; This function uses a non-reentrant model
  4038 ;;
  4039                           
  4040                           	psect	text48
  4041  00168E                     __ptext48:
  4042                           	callstack 0
  4043  00168E                     _wr2RegCompleteHandler:
  4044                           	callstack 19
  4045  00168E                     
  4046                           ;mcc_generated_files/drivers/i2c_simple_master.c: 151: static i2c1_operations_t wr2RegCo
      +                          mpleteHandler(void *p);mcc_generated_files/drivers/i2c_simple_master.c: 152: {;mcc_gener
      +                          ated_files/drivers/i2c_simple_master.c: 153:     I2C1_SetBuffer(p,2);
  4047  00168E  C04A  F03F         	movff	wr2RegCompleteHandler@p,I2C1_SetBuffer@buffer
  4048  001692  C04B  F040         	movff	wr2RegCompleteHandler@p+1,I2C1_SetBuffer@buffer+1
  4049  001696  0E00               	movlw	0
  4050  001698  6E42               	movwf	(I2C1_SetBuffer@bufferSize+1)^0,c
  4051  00169A  0E02               	movlw	2
  4052  00169C  6E41               	movwf	I2C1_SetBuffer@bufferSize^0,c
  4053  00169E  ECF6  F00B         	call	_I2C1_SetBuffer	;wreg free
  4054  0016A2                     
  4055                           ;mcc_generated_files/drivers/i2c_simple_master.c: 154:     I2C1_SetDataCompleteCallback(
      +                          ((void*)0),((void*)0));
  4056  0016A2  0E00               	movlw	0
  4057  0016A4  6E45               	movwf	I2C1_SetDataCompleteCallback@cb^0,c
  4058  0016A6  0E00               	movlw	0
  4059  0016A8  6E46               	movwf	(I2C1_SetDataCompleteCallback@cb+1)^0,c
  4060  0016AA  0E00               	movlw	0
  4061  0016AC  6E47               	movwf	(I2C1_SetDataCompleteCallback@cb+2)^0,c
  4062  0016AE  0E00               	movlw	0
  4063  0016B0  6E48               	movwf	I2C1_SetDataCompleteCallback@ptr^0,c
  4064  0016B2  0E00               	movlw	0
  4065  0016B4  6E49               	movwf	(I2C1_SetDataCompleteCallback@ptr+1)^0,c
  4066  0016B6  EC23  F00C         	call	_I2C1_SetDataCompleteCallback	;wreg free
  4067  0016BA                     
  4068                           ;mcc_generated_files/drivers/i2c_simple_master.c: 155:     return I2C1_CONTINUE;
  4069  0016BA  0E04               	movlw	4
  4070  0016BC  0012               	return		;funcret
  4071  0016BE                     __end_of_wr2RegCompleteHandler:
  4072                           	callstack 0
  4073                           
  4074 ;; *************** function _rd2RegCompleteHandler *****************
  4075 ;; Defined at:
  4076 ;;		line 119 in file "mcc_generated_files/drivers/i2c_simple_master.c"
  4077 ;; Parameters:    Size  Location     Type
  4078 ;;  p               2   11[COMRAM] PTR void 
  4079 ;;		 -> I2C1_ReadDataBlock@bufferBlock(4), I2C1_Write2ByteRegister@data(2), I2C1_Write1ByteRegister@data(1), I2C1_Read2B
      +yteRegister@returnValue(2), 
  4080 ;;		 -> I2C1_Read1ByteRegister@returnValue(1), i2c_readDataBlock@d(4), i2c_write2ByteRegister@data(2), i2c_read2ByteRegi
      +ster@result(2), 
  4081 ;;		 -> i2c_read1ByteRegister@d2(1), i2c_write1ByteRegister@data(1), NULL(0), 
  4082 ;; Auto vars:     Size  Location     Type
  4083 ;;		None
  4084 ;; Return value:  Size  Location     Type
  4085 ;;                  1    wreg      enum E360
  4086 ;; Registers used:
  4087 ;;		wreg, fsr2l, fsr2h, status,2, status,0, prodl, prodh, cstack
  4088 ;; Tracked objects:
  4089 ;;		On entry : 0/0
  4090 ;;		On exit  : 0/0
  4091 ;;		Unchanged: 0/0
  4092 ;; Data sizes:     COMRAM   BANK0   BANK1   BANK2   BANK3   BANK4   BANK5   BANK6   BANK7   BANK8   BANK9  BANK10  BANK1
      +1  BANK12  BANK13
  4093 ;;      Params:         2       0       0       0       0       0       0       0       0       0       0       0       
      +0       0       0
  4094 ;;      Locals:         0       0       0       0       0       0       0       0       0       0       0       0       
      +0       0       0
  4095 ;;      Temps:          0       0       0       0       0       0       0       0       0       0       0       0       
      +0       0       0
  4096 ;;      Totals:         2       0       0       0       0       0       0       0       0       0       0       0       
      +0       0       0
  4097 ;;Total ram usage:        2 bytes
  4098 ;; Hardware stack levels used:    1
  4099 ;; Hardware stack levels required when called:    2
  4100 ;; This function calls:
  4101 ;;		_I2C1_SetBuffer
  4102 ;;		_I2C1_SetDataCompleteCallback
  4103 ;; This function is called by:
  4104 ;;		_i2c_read2ByteRegister
  4105 ;;		_I2C1_DO_TX
  4106 ;;		_I2C1_DO_RX
  4107 ;;		_I2C1_DO_TX_EMPTY
  4108 ;;		_I2C1_DO_ADDRESS_NACK
  4109 ;;		_I2C1_DO_RX_EMPTY
  4110 ;; This function uses a non-reentrant model
  4111 ;;
  4112                           
  4113                           	psect	text49
  4114  0016BE                     __ptext49:
  4115                           	callstack 0
  4116  0016BE                     _rd2RegCompleteHandler:
  4117                           	callstack 19
  4118  0016BE                     
  4119                           ;mcc_generated_files/drivers/i2c_simple_master.c: 119: static i2c1_operations_t rd2RegCo
      +                          mpleteHandler(void *p);mcc_generated_files/drivers/i2c_simple_master.c: 120: {;mcc_gener
      +                          ated_files/drivers/i2c_simple_master.c: 121:     I2C1_SetBuffer(p,2);
  4120  0016BE  C04A  F03F         	movff	rd2RegCompleteHandler@p,I2C1_SetBuffer@buffer
  4121  0016C2  C04B  F040         	movff	rd2RegCompleteHandler@p+1,I2C1_SetBuffer@buffer+1
  4122  0016C6  0E00               	movlw	0
  4123  0016C8  6E42               	movwf	(I2C1_SetBuffer@bufferSize+1)^0,c
  4124  0016CA  0E02               	movlw	2
  4125  0016CC  6E41               	movwf	I2C1_SetBuffer@bufferSize^0,c
  4126  0016CE  ECF6  F00B         	call	_I2C1_SetBuffer	;wreg free
  4127  0016D2                     
  4128                           ;mcc_generated_files/drivers/i2c_simple_master.c: 122:     I2C1_SetDataCompleteCallback(
      +                          ((void*)0),((void*)0));
  4129  0016D2  0E00               	movlw	0
  4130  0016D4  6E45               	movwf	I2C1_SetDataCompleteCallback@cb^0,c
  4131  0016D6  0E00               	movlw	0
  4132  0016D8  6E46               	movwf	(I2C1_SetDataCompleteCallback@cb+1)^0,c
  4133  0016DA  0E00               	movlw	0
  4134  0016DC  6E47               	movwf	(I2C1_SetDataCompleteCallback@cb+2)^0,c
  4135  0016DE  0E00               	movlw	0
  4136  0016E0  6E48               	movwf	I2C1_SetDataCompleteCallback@ptr^0,c
  4137  0016E2  0E00               	movlw	0
  4138  0016E4  6E49               	movwf	(I2C1_SetDataCompleteCallback@ptr+1)^0,c
  4139  0016E6  EC23  F00C         	call	_I2C1_SetDataCompleteCallback	;wreg free
  4140  0016EA                     
  4141                           ;mcc_generated_files/drivers/i2c_simple_master.c: 123:     return I2C1_RESTART_READ;
  4142  0016EA  0E02               	movlw	2
  4143  0016EC  0012               	return		;funcret
  4144  0016EE                     __end_of_rd2RegCompleteHandler:
  4145                           	callstack 0
  4146                           
  4147 ;; *************** function _rd1RegCompleteHandler *****************
  4148 ;; Defined at:
  4149 ;;		line 81 in file "mcc_generated_files/drivers/i2c_simple_master.c"
  4150 ;; Parameters:    Size  Location     Type
  4151 ;;  p               2   11[COMRAM] PTR void 
  4152 ;;		 -> I2C1_ReadDataBlock@bufferBlock(4), I2C1_Write2ByteRegister@data(2), I2C1_Write1ByteRegister@data(1), I2C1_Read2B
      +yteRegister@returnValue(2), 
  4153 ;;		 -> I2C1_Read1ByteRegister@returnValue(1), i2c_readDataBlock@d(4), i2c_write2ByteRegister@data(2), i2c_read2ByteRegi
      +ster@result(2), 
  4154 ;;		 -> i2c_read1ByteRegister@d2(1), i2c_write1ByteRegister@data(1), NULL(0), 
  4155 ;; Auto vars:     Size  Location     Type
  4156 ;;		None
  4157 ;; Return value:  Size  Location     Type
  4158 ;;                  1    wreg      enum E360
  4159 ;; Registers used:
  4160 ;;		wreg, fsr2l, fsr2h, status,2, status,0, prodl, prodh, cstack
  4161 ;; Tracked objects:
  4162 ;;		On entry : 0/0
  4163 ;;		On exit  : 0/0
  4164 ;;		Unchanged: 0/0
  4165 ;; Data sizes:     COMRAM   BANK0   BANK1   BANK2   BANK3   BANK4   BANK5   BANK6   BANK7   BANK8   BANK9  BANK10  BANK1
      +1  BANK12  BANK13
  4166 ;;      Params:         2       0       0       0       0       0       0       0       0       0       0       0       
      +0       0       0
  4167 ;;      Locals:         0       0       0       0       0       0       0       0       0       0       0       0       
      +0       0       0
  4168 ;;      Temps:          0       0       0       0       0       0       0       0       0       0       0       0       
      +0       0       0
  4169 ;;      Totals:         2       0       0       0       0       0       0       0       0       0       0       0       
      +0       0       0
  4170 ;;Total ram usage:        2 bytes
  4171 ;; Hardware stack levels used:    1
  4172 ;; Hardware stack levels required when called:    2
  4173 ;; This function calls:
  4174 ;;		_I2C1_SetBuffer
  4175 ;;		_I2C1_SetDataCompleteCallback
  4176 ;; This function is called by:
  4177 ;;		_i2c_read1ByteRegister
  4178 ;;		_I2C1_DO_TX
  4179 ;;		_I2C1_DO_RX
  4180 ;;		_I2C1_DO_TX_EMPTY
  4181 ;;		_I2C1_DO_ADDRESS_NACK
  4182 ;;		_I2C1_DO_RX_EMPTY
  4183 ;; This function uses a non-reentrant model
  4184 ;;
  4185                           
  4186                           	psect	text50
  4187  0016EE                     __ptext50:
  4188                           	callstack 0
  4189  0016EE                     _rd1RegCompleteHandler:
  4190                           	callstack 19
  4191  0016EE                     
  4192                           ;mcc_generated_files/drivers/i2c_simple_master.c: 81: static i2c1_operations_t rd1RegCom
      +                          pleteHandler(void *p);mcc_generated_files/drivers/i2c_simple_master.c: 82: {;mcc_generat
      +                          ed_files/drivers/i2c_simple_master.c: 83:     I2C1_SetBuffer(p,1);
  4193  0016EE  C04A  F03F         	movff	rd1RegCompleteHandler@p,I2C1_SetBuffer@buffer
  4194  0016F2  C04B  F040         	movff	rd1RegCompleteHandler@p+1,I2C1_SetBuffer@buffer+1
  4195  0016F6  0E00               	movlw	0
  4196  0016F8  6E42               	movwf	(I2C1_SetBuffer@bufferSize+1)^0,c
  4197  0016FA  0E01               	movlw	1
  4198  0016FC  6E41               	movwf	I2C1_SetBuffer@bufferSize^0,c
  4199  0016FE  ECF6  F00B         	call	_I2C1_SetBuffer	;wreg free
  4200  001702                     
  4201                           ;mcc_generated_files/drivers/i2c_simple_master.c: 84:     I2C1_SetDataCompleteCallback((
      +                          (void*)0),((void*)0));
  4202  001702  0E00               	movlw	0
  4203  001704  6E45               	movwf	I2C1_SetDataCompleteCallback@cb^0,c
  4204  001706  0E00               	movlw	0
  4205  001708  6E46               	movwf	(I2C1_SetDataCompleteCallback@cb+1)^0,c
  4206  00170A  0E00               	movlw	0
  4207  00170C  6E47               	movwf	(I2C1_SetDataCompleteCallback@cb+2)^0,c
  4208  00170E  0E00               	movlw	0
  4209  001710  6E48               	movwf	I2C1_SetDataCompleteCallback@ptr^0,c
  4210  001712  0E00               	movlw	0
  4211  001714  6E49               	movwf	(I2C1_SetDataCompleteCallback@ptr+1)^0,c
  4212  001716  EC23  F00C         	call	_I2C1_SetDataCompleteCallback	;wreg free
  4213  00171A                     
  4214                           ;mcc_generated_files/drivers/i2c_simple_master.c: 85:     return I2C1_RESTART_READ;
  4215  00171A  0E02               	movlw	2
  4216  00171C  0012               	return		;funcret
  4217  00171E                     __end_of_rd1RegCompleteHandler:
  4218                           	callstack 0
  4219                           
  4220 ;; *************** function _wr1RegCompleteHandler *****************
  4221 ;; Defined at:
  4222 ;;		line 34 in file "mcc_generated_files/drivers/i2c_simple_master.c"
  4223 ;; Parameters:    Size  Location     Type
  4224 ;;  p               2   11[COMRAM] PTR void 
  4225 ;;		 -> I2C1_ReadDataBlock@bufferBlock(4), I2C1_Write2ByteRegister@data(2), I2C1_Write1ByteRegister@data(1), I2C1_Read2B
      +yteRegister@returnValue(2), 
  4226 ;;		 -> I2C1_Read1ByteRegister@returnValue(1), i2c_readDataBlock@d(4), i2c_write2ByteRegister@data(2), i2c_read2ByteRegi
      +ster@result(2), 
  4227 ;;		 -> i2c_read1ByteRegister@d2(1), i2c_write1ByteRegister@data(1), NULL(0), 
  4228 ;; Auto vars:     Size  Location     Type
  4229 ;;		None
  4230 ;; Return value:  Size  Location     Type
  4231 ;;                  1    wreg      enum E360
  4232 ;; Registers used:
  4233 ;;		wreg, fsr2l, fsr2h, status,2, status,0, prodl, prodh, cstack
  4234 ;; Tracked objects:
  4235 ;;		On entry : 0/0
  4236 ;;		On exit  : 0/0
  4237 ;;		Unchanged: 0/0
  4238 ;; Data sizes:     COMRAM   BANK0   BANK1   BANK2   BANK3   BANK4   BANK5   BANK6   BANK7   BANK8   BANK9  BANK10  BANK1
      +1  BANK12  BANK13
  4239 ;;      Params:         2       0       0       0       0       0       0       0       0       0       0       0       
      +0       0       0
  4240 ;;      Locals:         0       0       0       0       0       0       0       0       0       0       0       0       
      +0       0       0
  4241 ;;      Temps:          0       0       0       0       0       0       0       0       0       0       0       0       
      +0       0       0
  4242 ;;      Totals:         2       0       0       0       0       0       0       0       0       0       0       0       
      +0       0       0
  4243 ;;Total ram usage:        2 bytes
  4244 ;; Hardware stack levels used:    1
  4245 ;; Hardware stack levels required when called:    2
  4246 ;; This function calls:
  4247 ;;		_I2C1_SetBuffer
  4248 ;;		_I2C1_SetDataCompleteCallback
  4249 ;; This function is called by:
  4250 ;;		_i2c_write1ByteRegister
  4251 ;;		_I2C1_DO_TX
  4252 ;;		_I2C1_DO_RX
  4253 ;;		_I2C1_DO_TX_EMPTY
  4254 ;;		_I2C1_DO_ADDRESS_NACK
  4255 ;;		_I2C1_DO_RX_EMPTY
  4256 ;; This function uses a non-reentrant model
  4257 ;;
  4258                           
  4259                           	psect	text51
  4260  00171E                     __ptext51:
  4261                           	callstack 0
  4262  00171E                     _wr1RegCompleteHandler:
  4263                           	callstack 19
  4264  00171E                     
  4265                           ;mcc_generated_files/drivers/i2c_simple_master.c: 34: static i2c1_operations_t wr1RegCom
      +                          pleteHandler(void *p);mcc_generated_files/drivers/i2c_simple_master.c: 35: {;mcc_generat
      +                          ed_files/drivers/i2c_simple_master.c: 36:     I2C1_SetBuffer(p,1);
  4266  00171E  C04A  F03F         	movff	wr1RegCompleteHandler@p,I2C1_SetBuffer@buffer
  4267  001722  C04B  F040         	movff	wr1RegCompleteHandler@p+1,I2C1_SetBuffer@buffer+1
  4268  001726  0E00               	movlw	0
  4269  001728  6E42               	movwf	(I2C1_SetBuffer@bufferSize+1)^0,c
  4270  00172A  0E01               	movlw	1
  4271  00172C  6E41               	movwf	I2C1_SetBuffer@bufferSize^0,c
  4272  00172E  ECF6  F00B         	call	_I2C1_SetBuffer	;wreg free
  4273  001732                     
  4274                           ;mcc_generated_files/drivers/i2c_simple_master.c: 37:     I2C1_SetDataCompleteCallback((
      +                          (void*)0),((void*)0));
  4275  001732  0E00               	movlw	0
  4276  001734  6E45               	movwf	I2C1_SetDataCompleteCallback@cb^0,c
  4277  001736  0E00               	movlw	0
  4278  001738  6E46               	movwf	(I2C1_SetDataCompleteCallback@cb+1)^0,c
  4279  00173A  0E00               	movlw	0
  4280  00173C  6E47               	movwf	(I2C1_SetDataCompleteCallback@cb+2)^0,c
  4281  00173E  0E00               	movlw	0
  4282  001740  6E48               	movwf	I2C1_SetDataCompleteCallback@ptr^0,c
  4283  001742  0E00               	movlw	0
  4284  001744  6E49               	movwf	(I2C1_SetDataCompleteCallback@ptr+1)^0,c
  4285  001746  EC23  F00C         	call	_I2C1_SetDataCompleteCallback	;wreg free
  4286  00174A                     
  4287                           ;mcc_generated_files/drivers/i2c_simple_master.c: 38:     return I2C1_CONTINUE;
  4288  00174A  0E04               	movlw	4
  4289  00174C  0012               	return		;funcret
  4290  00174E                     __end_of_wr1RegCompleteHandler:
  4291                           	callstack 0
  4292                           
  4293 ;; *************** function _wr2RegCompleteHandler@i2c1_master_example$F168 *****************
  4294 ;; Defined at:
  4295 ;;		line 163 in file "mcc_generated_files/examples/i2c1_master_example.c"
  4296 ;; Parameters:    Size  Location     Type
  4297 ;;  ptr             2   11[COMRAM] PTR void 
  4298 ;;		 -> I2C1_ReadDataBlock@bufferBlock(4), I2C1_Write2ByteRegister@data(2), I2C1_Write1ByteRegister@data(1), I2C1_Read2B
      +yteRegister@returnValue(2), 
  4299 ;;		 -> I2C1_Read1ByteRegister@returnValue(1), i2c_readDataBlock@d(4), i2c_write2ByteRegister@data(2), i2c_read2ByteRegi
      +ster@result(2), 
  4300 ;;		 -> i2c_read1ByteRegister@d2(1), i2c_write1ByteRegister@data(1), NULL(0), 
  4301 ;; Auto vars:     Size  Location     Type
  4302 ;;		None
  4303 ;; Return value:  Size  Location     Type
  4304 ;;                  1    wreg      enum E360
  4305 ;; Registers used:
  4306 ;;		wreg, fsr2l, fsr2h, status,2, status,0, prodl, prodh, cstack
  4307 ;; Tracked objects:
  4308 ;;		On entry : 0/0
  4309 ;;		On exit  : 0/0
  4310 ;;		Unchanged: 0/0
  4311 ;; Data sizes:     COMRAM   BANK0   BANK1   BANK2   BANK3   BANK4   BANK5   BANK6   BANK7   BANK8   BANK9  BANK10  BANK1
      +1  BANK12  BANK13
  4312 ;;      Params:         2       0       0       0       0       0       0       0       0       0       0       0       
      +0       0       0
  4313 ;;      Locals:         0       0       0       0       0       0       0       0       0       0       0       0       
      +0       0       0
  4314 ;;      Temps:          0       0       0       0       0       0       0       0       0       0       0       0       
      +0       0       0
  4315 ;;      Totals:         2       0       0       0       0       0       0       0       0       0       0       0       
      +0       0       0
  4316 ;;Total ram usage:        2 bytes
  4317 ;; Hardware stack levels used:    1
  4318 ;; Hardware stack levels required when called:    2
  4319 ;; This function calls:
  4320 ;;		_I2C1_SetBuffer
  4321 ;;		_I2C1_SetDataCompleteCallback
  4322 ;; This function is called by:
  4323 ;;		_I2C1_Write2ByteRegister
  4324 ;;		_I2C1_DO_TX
  4325 ;;		_I2C1_DO_RX
  4326 ;;		_I2C1_DO_TX_EMPTY
  4327 ;;		_I2C1_DO_ADDRESS_NACK
  4328 ;;		_I2C1_DO_RX_EMPTY
  4329 ;; This function uses a non-reentrant model
  4330 ;;
  4331                           
  4332                           	psect	text52
  4333  00174E                     __ptext52:
  4334                           	callstack 0
  4335  00174E                     _wr2RegCompleteHandler@i2c1_master_example$F168:
  4336                           	callstack 19
  4337  00174E                     
  4338                           ;mcc_generated_files/examples/i2c1_master_example.c: 163: static i2c1_operations_t wr2Re
      +                          gCompleteHandler(void *ptr);mcc_generated_files/examples/i2c1_master_example.c: 164: {;m
      +                          cc_generated_files/examples/i2c1_master_example.c: 165:     I2C1_SetBuffer(ptr,2);
  4339  00174E  C04A  F03F         	movff	wr2RegCompleteHandler@i2c1_master_example$F168@ptr,I2C1_SetBuffer@buffer
  4340  001752  C04B  F040         	movff	wr2RegCompleteHandler@i2c1_master_example$F168@ptr+1,I2C1_SetBuffer@buffer+1
  4341  001756  0E00               	movlw	0
  4342  001758  6E42               	movwf	(I2C1_SetBuffer@bufferSize+1)^0,c
  4343  00175A  0E02               	movlw	2
  4344  00175C  6E41               	movwf	I2C1_SetBuffer@bufferSize^0,c
  4345  00175E  ECF6  F00B         	call	_I2C1_SetBuffer	;wreg free
  4346  001762                     
  4347                           ;mcc_generated_files/examples/i2c1_master_example.c: 166:     I2C1_SetDataCompleteCallba
      +                          ck(((void*)0),((void*)0));
  4348  001762  0E00               	movlw	0
  4349  001764  6E45               	movwf	I2C1_SetDataCompleteCallback@cb^0,c
  4350  001766  0E00               	movlw	0
  4351  001768  6E46               	movwf	(I2C1_SetDataCompleteCallback@cb+1)^0,c
  4352  00176A  0E00               	movlw	0
  4353  00176C  6E47               	movwf	(I2C1_SetDataCompleteCallback@cb+2)^0,c
  4354  00176E  0E00               	movlw	0
  4355  001770  6E48               	movwf	I2C1_SetDataCompleteCallback@ptr^0,c
  4356  001772  0E00               	movlw	0
  4357  001774  6E49               	movwf	(I2C1_SetDataCompleteCallback@ptr+1)^0,c
  4358  001776  EC23  F00C         	call	_I2C1_SetDataCompleteCallback	;wreg free
  4359  00177A                     
  4360                           ;mcc_generated_files/examples/i2c1_master_example.c: 167:     return I2C1_CONTINUE;
  4361  00177A  0E04               	movlw	4
  4362  00177C  0012               	return		;funcret
  4363  00177E                     __end_of_wr2RegCompleteHandler@i2c1_master_example$F168:
  4364                           	callstack 0
  4365                           
  4366 ;; *************** function _I2C1_SetDataCompleteCallback *****************
  4367 ;; Defined at:
  4368 ;;		line 273 in file "mcc_generated_files/i2c1_master.c"
  4369 ;; Parameters:    Size  Location     Type
  4370 ;;  cb              3    6[COMRAM] PTR FTN(PTR void ,)enum 
  4371 ;;		 -> Absolute function(1), rdBlkRegCompleteHandler@i2c1_master_example$F179(1), wr2RegCompleteHandler@i2c1_master_exa
      +mple$F168(1), wr1RegCompleteHandler@i2c1_master_example$F162(1), 
  4372 ;;		 -> rd2RegCompleteHandler@i2c1_master_example$F156(1), rd1RegCompleteHandler@i2c1_master_example$F145(1), rdBlkRegCo
      +mpleteHandler(1), wr2RegCompleteHandler(1), 
  4373 ;;		 -> rd2RegCompleteHandler(1), rd1RegCompleteHandler(1), wr1RegCompleteHandler(1), 
  4374 ;;  ptr             2    9[COMRAM] PTR void 
  4375 ;;		 -> I2C1_ReadDataBlock@bufferBlock(4), I2C1_Write2ByteRegister@data(2), I2C1_Write1ByteRegister@data(1), I2C1_Read2B
      +yteRegister@returnValue(2), 
  4376 ;;		 -> I2C1_Read1ByteRegister@returnValue(1), i2c_readDataBlock@d(4), i2c_write2ByteRegister@data(2), i2c_read2ByteRegi
      +ster@result(2), 
  4377 ;;		 -> i2c_read1ByteRegister@d2(1), i2c_write1ByteRegister@data(1), NULL(0), 
  4378 ;; Auto vars:     Size  Location     Type
  4379 ;;		None
  4380 ;; Return value:  Size  Location     Type
  4381 ;;                  1    wreg      void 
  4382 ;; Registers used:
  4383 ;;		wreg, fsr2l, fsr2h, status,2, status,0, prodl, prodh, cstack
  4384 ;; Tracked objects:
  4385 ;;		On entry : 0/0
  4386 ;;		On exit  : 0/0
  4387 ;;		Unchanged: 0/0
  4388 ;; Data sizes:     COMRAM   BANK0   BANK1   BANK2   BANK3   BANK4   BANK5   BANK6   BANK7   BANK8   BANK9  BANK10  BANK1
      +1  BANK12  BANK13
  4389 ;;      Params:         5       0       0       0       0       0       0       0       0       0       0       0       
      +0       0       0
  4390 ;;      Locals:         0       0       0       0       0       0       0       0       0       0       0       0       
      +0       0       0
  4391 ;;      Temps:          0       0       0       0       0       0       0       0       0       0       0       0       
      +0       0       0
  4392 ;;      Totals:         5       0       0       0       0       0       0       0       0       0       0       0       
      +0       0       0
  4393 ;;Total ram usage:        5 bytes
  4394 ;; Hardware stack levels used:    1
  4395 ;; Hardware stack levels required when called:    1
  4396 ;; This function calls:
  4397 ;;		_I2C1_SetCallback
  4398 ;; This function is called by:
  4399 ;;		_wr1RegCompleteHandler
  4400 ;;		_i2c_write1ByteRegister
  4401 ;;		_rd1RegCompleteHandler
  4402 ;;		_i2c_read1ByteRegister
  4403 ;;		_rd2RegCompleteHandler
  4404 ;;		_wr2RegCompleteHandler
  4405 ;;		_rdBlkRegCompleteHandler
  4406 ;;		_rd1RegCompleteHandler@i2c1_master_example$F145
  4407 ;;		_rd2RegCompleteHandler@i2c1_master_example$F156
  4408 ;;		_wr1RegCompleteHandler@i2c1_master_example$F162
  4409 ;;		_wr2RegCompleteHandler@i2c1_master_example$F168
  4410 ;;		_rdBlkRegCompleteHandler@i2c1_master_example$F179
  4411 ;;		_i2c_read2ByteRegister
  4412 ;;		_i2c_write2ByteRegister
  4413 ;;		_i2c_readDataBlock
  4414 ;;		_I2C1_Read1ByteRegister
  4415 ;;		_I2C1_Read2ByteRegister
  4416 ;;		_I2C1_Write1ByteRegister
  4417 ;;		_I2C1_Write2ByteRegister
  4418 ;;		_I2C1_ReadDataBlock
  4419 ;; This function uses a non-reentrant model
  4420 ;;
  4421                           
  4422                           	psect	text53
  4423  001846                     __ptext53:
  4424                           	callstack 0
  4425  001846                     _I2C1_SetDataCompleteCallback:
  4426                           	callstack 25
  4427  001846                     
  4428                           ;mcc_generated_files/i2c1_master.c: 273: void I2C1_SetDataCompleteCallback(i2c1_callback
      +                          _t cb, void *ptr);mcc_generated_files/i2c1_master.c: 274: {;mcc_generated_files/i2c1_mas
      +                          ter.c: 275:     I2C1_SetCallback(I2C1_DATA_COMPLETE, cb, ptr);
  4429  001846  C045  F03F         	movff	I2C1_SetDataCompleteCallback@cb,I2C1_SetCallback@cb
  4430  00184A  C046  F040         	movff	I2C1_SetDataCompleteCallback@cb+1,I2C1_SetCallback@cb+1
  4431  00184E  C047  F041         	movff	I2C1_SetDataCompleteCallback@cb+2,I2C1_SetCallback@cb+2
  4432  001852  C048  F042         	movff	I2C1_SetDataCompleteCallback@ptr,I2C1_SetCallback@ptr
  4433  001856  C049  F043         	movff	I2C1_SetDataCompleteCallback@ptr+1,I2C1_SetCallback@ptr+1
  4434  00185A  0E00               	movlw	0
  4435  00185C  ECF4  F008         	call	_I2C1_SetCallback
  4436  001860  0012               	return		;funcret
  4437  001862                     __end_of_I2C1_SetDataCompleteCallback:
  4438                           	callstack 0
  4439                           
  4440 ;; *************** function _I2C1_SetCallback *****************
  4441 ;; Defined at:
  4442 ;;		line 298 in file "mcc_generated_files/i2c1_master.c"
  4443 ;; Parameters:    Size  Location     Type
  4444 ;;  idx             1    wreg     enum E14632
  4445 ;;  cb              3    0[COMRAM] PTR FTN(PTR void ,)enum 
  4446 ;;		 -> Absolute function(1), rdBlkRegCompleteHandler@i2c1_master_example$F179(1), wr2RegCompleteHandler@i2c1_master_exa
      +mple$F168(1), wr1RegCompleteHandler@i2c1_master_example$F162(1), 
  4447 ;;		 -> rd2RegCompleteHandler@i2c1_master_example$F156(1), rd1RegCompleteHandler@i2c1_master_example$F145(1), rdBlkRegCo
      +mpleteHandler(1), wr2RegCompleteHandler(1), 
  4448 ;;		 -> rd2RegCompleteHandler(1), rd1RegCompleteHandler(1), wr1RegCompleteHandler(1), 
  4449 ;;  ptr             2    3[COMRAM] PTR void 
  4450 ;;		 -> I2C1_ReadDataBlock@bufferBlock(4), I2C1_Write2ByteRegister@data(2), I2C1_Write1ByteRegister@data(1), I2C1_Read2B
      +yteRegister@returnValue(2), 
  4451 ;;		 -> I2C1_Read1ByteRegister@returnValue(1), i2c_readDataBlock@d(4), i2c_write2ByteRegister@data(2), i2c_read2ByteRegi
      +ster@result(2), 
  4452 ;;		 -> i2c_read1ByteRegister@d2(1), i2c_write1ByteRegister@data(1), NULL(0), 
  4453 ;; Auto vars:     Size  Location     Type
  4454 ;;  idx             1    5[COMRAM] enum E14632
  4455 ;; Return value:  Size  Location     Type
  4456 ;;                  1    wreg      void 
  4457 ;; Registers used:
  4458 ;;		wreg, fsr2l, fsr2h, status,2, status,0, prodl, prodh
  4459 ;; Tracked objects:
  4460 ;;		On entry : 0/0
  4461 ;;		On exit  : 0/0
  4462 ;;		Unchanged: 0/0
  4463 ;; Data sizes:     COMRAM   BANK0   BANK1   BANK2   BANK3   BANK4   BANK5   BANK6   BANK7   BANK8   BANK9  BANK10  BANK1
      +1  BANK12  BANK13
  4464 ;;      Params:         5       0       0       0       0       0       0       0       0       0       0       0       
      +0       0       0
  4465 ;;      Locals:         1       0       0       0       0       0       0       0       0       0       0       0       
      +0       0       0
  4466 ;;      Temps:          0       0       0       0       0       0       0       0       0       0       0       0       
      +0       0       0
  4467 ;;      Totals:         6       0       0       0       0       0       0       0       0       0       0       0       
      +0       0       0
  4468 ;;Total ram usage:        6 bytes
  4469 ;; Hardware stack levels used:    1
  4470 ;; This function calls:
  4471 ;;		Nothing
  4472 ;; This function is called by:
  4473 ;;		_I2C1_SetDataCompleteCallback
  4474 ;;		_I2C1_SetAddressNackCallback
  4475 ;;		_I2C1_SetWriteCollisionCallback
  4476 ;;		_I2C1_SetDataNackCallback
  4477 ;;		_I2C1_SetTimeoutCallback
  4478 ;; This function uses a non-reentrant model
  4479 ;;
  4480                           
  4481                           	psect	text54
  4482  0011E8                     __ptext54:
  4483                           	callstack 0
  4484  0011E8                     _I2C1_SetCallback:
  4485                           	callstack 25
  4486                           
  4487                           ;incstack = 0
  4488                           ;I2C1_SetCallback@idx stored from wreg
  4489  0011E8  6E44               	movwf	I2C1_SetCallback@idx^0,c
  4490  0011EA                     
  4491                           ;mcc_generated_files/i2c1_master.c: 298: static void I2C1_SetCallback(i2c1_callbackIndex
      +                          _t idx, i2c1_callback_t cb, void *ptr);mcc_generated_files/i2c1_master.c: 299: {;mcc_gen
      +                          erated_files/i2c1_master.c: 300:     if(cb)
  4492  0011EA  503F               	movf	I2C1_SetCallback@cb^0,w,c
  4493  0011EC  1040               	iorwf	(I2C1_SetCallback@cb+1)^0,w,c
  4494  0011EE  1041               	iorwf	(I2C1_SetCallback@cb+2)^0,w,c
  4495  0011F0  B4D8               	btfsc	status,2,c
  4496  0011F2  EFFD  F008         	goto	u601
  4497  0011F6  EFFF  F008         	goto	u600
  4498  0011FA                     u601:
  4499  0011FA  EF1B  F009         	goto	l2792
  4500  0011FE                     u600:
  4501  0011FE                     
  4502                           ;mcc_generated_files/i2c1_master.c: 301:     {;mcc_generated_files/i2c1_master.c: 302:  
      +                                 I2C1_Status.callbackTable[idx] = cb;
  4503  0011FE  5044               	movf	I2C1_SetCallback@idx^0,w,c
  4504  001200  0D03               	mullw	3
  4505  001202  0E01               	movlw	low _I2C1_Status
  4506  001204  24F3               	addwf	243,w,c
  4507  001206  6ED9               	movwf	fsr2l,c
  4508  001208  0E00               	movlw	high _I2C1_Status
  4509  00120A  20F4               	addwfc	prodh,w,c
  4510  00120C  6EDA               	movwf	fsr2h,c
  4511  00120E  C03F  FFDE         	movff	I2C1_SetCallback@cb,postinc2
  4512  001212  C040  FFDE         	movff	I2C1_SetCallback@cb+1,postinc2
  4513  001216  C041  FFDE         	movff	I2C1_SetCallback@cb+2,postinc2
  4514                           
  4515                           ;mcc_generated_files/i2c1_master.c: 303:         I2C1_Status.callbackPayload[idx] = ptr;
  4516  00121A  5044               	movf	I2C1_SetCallback@idx^0,w,c
  4517  00121C  0D02               	mullw	2
  4518  00121E  0E13               	movlw	low (_I2C1_Status+18)
  4519  001220  24F3               	addwf	243,w,c
  4520  001222  6ED9               	movwf	fsr2l,c
  4521  001224  0E00               	movlw	high (_I2C1_Status+18)
  4522  001226  20F4               	addwfc	prodh,w,c
  4523  001228  6EDA               	movwf	fsr2h,c
  4524  00122A  C042  FFDE         	movff	I2C1_SetCallback@ptr,postinc2
  4525  00122E  C043  FFDD         	movff	I2C1_SetCallback@ptr+1,postdec2
  4526                           
  4527                           ;mcc_generated_files/i2c1_master.c: 304:     }
  4528  001232  EF35  F009         	goto	l547
  4529  001236                     l2792:
  4530                           
  4531                           ;mcc_generated_files/i2c1_master.c: 306:     {;mcc_generated_files/i2c1_master.c: 307:  
      +                                 I2C1_Status.callbackTable[idx] = I2C1_CallbackReturnStop;
  4532  001236  5044               	movf	I2C1_SetCallback@idx^0,w,c
  4533  001238  0D03               	mullw	3
  4534  00123A  0E01               	movlw	low _I2C1_Status
  4535  00123C  24F3               	addwf	243,w,c
  4536  00123E  6ED9               	movwf	fsr2l,c
  4537  001240  0E00               	movlw	high _I2C1_Status
  4538  001242  20F4               	addwfc	prodh,w,c
  4539  001244  6EDA               	movwf	fsr2h,c
  4540  001246  0EDC               	movlw	low _I2C1_CallbackReturnStop
  4541  001248  6EDE               	movwf	postinc2,c
  4542  00124A  0E19               	movlw	high _I2C1_CallbackReturnStop
  4543  00124C  6EDE               	movwf	postinc2,c
  4544  00124E  0E00               	movlw	low (_I2C1_CallbackReturnStop shr (0+16))
  4545  001250  6EDE               	movwf	postinc2,c
  4546                           
  4547                           ;mcc_generated_files/i2c1_master.c: 308:         I2C1_Status.callbackPayload[idx] = ((vo
      +                          id*)0);
  4548  001252  5044               	movf	I2C1_SetCallback@idx^0,w,c
  4549  001254  0D02               	mullw	2
  4550  001256  0E13               	movlw	low (_I2C1_Status+18)
  4551  001258  24F3               	addwf	243,w,c
  4552  00125A  6ED9               	movwf	fsr2l,c
  4553  00125C  0E00               	movlw	high (_I2C1_Status+18)
  4554  00125E  20F4               	addwfc	prodh,w,c
  4555  001260  6EDA               	movwf	fsr2h,c
  4556  001262  0E00               	movlw	0
  4557  001264  6EDE               	movwf	postinc2,c
  4558  001266  0E00               	movlw	0
  4559  001268  6EDD               	movwf	postdec2,c
  4560  00126A                     l547:
  4561  00126A  0012               	return		;funcret
  4562  00126C                     __end_of_I2C1_SetCallback:
  4563                           	callstack 0
  4564                           
  4565 ;; *************** function _I2C1_SetBuffer *****************
  4566 ;; Defined at:
  4567 ;;		line 263 in file "mcc_generated_files/i2c1_master.c"
  4568 ;; Parameters:    Size  Location     Type
  4569 ;;  buffer          2    0[COMRAM] PTR void 
  4570 ;;		 -> I2C1_ReadDataBlock@reg(1), I2C1_ReadDataBlock@bufferBlock(4), I2C1_Write2ByteRegister@reg(1), I2C1_Write2ByteReg
      +ister@data(2), 
  4571 ;;		 -> I2C1_Write1ByteRegister@reg(1), I2C1_Write1ByteRegister@data(1), I2C1_Read2ByteRegister@reg(1), I2C1_Read2ByteRe
      +gister@returnValue(2), 
  4572 ;;		 -> I2C1_Read1ByteRegister@reg(1), I2C1_Read1ByteRegister@returnValue(1), i2c_readDataBlock@reg(1), i2c_readDataBloc
      +k@d(4), 
  4573 ;;		 -> i2c_write2ByteRegister@reg(1), i2c_write2ByteRegister@data(2), i2c_read2ByteRegister@reg(1), i2c_read2ByteRegist
      +er@result(2), 
  4574 ;;		 -> i2c_read1ByteRegister@reg(1), i2c_read1ByteRegister@d2(1), i2c_write1ByteRegister@reg(1), i2c_write1ByteRegister
      +@data(1), 
  4575 ;;		 -> NULL(0), 
  4576 ;;  bufferSize      2    2[COMRAM] unsigned int 
  4577 ;; Auto vars:     Size  Location     Type
  4578 ;;		None
  4579 ;; Return value:  Size  Location     Type
  4580 ;;                  1    wreg      void 
  4581 ;; Registers used:
  4582 ;;		wreg, status,2, status,0
  4583 ;; Tracked objects:
  4584 ;;		On entry : 0/0
  4585 ;;		On exit  : 0/0
  4586 ;;		Unchanged: 0/0
  4587 ;; Data sizes:     COMRAM   BANK0   BANK1   BANK2   BANK3   BANK4   BANK5   BANK6   BANK7   BANK8   BANK9  BANK10  BANK1
      +1  BANK12  BANK13
  4588 ;;      Params:         4       0       0       0       0       0       0       0       0       0       0       0       
      +0       0       0
  4589 ;;      Locals:         0       0       0       0       0       0       0       0       0       0       0       0       
      +0       0       0
  4590 ;;      Temps:          0       0       0       0       0       0       0       0       0       0       0       0       
      +0       0       0
  4591 ;;      Totals:         4       0       0       0       0       0       0       0       0       0       0       0       
      +0       0       0
  4592 ;;Total ram usage:        4 bytes
  4593 ;; Hardware stack levels used:    1
  4594 ;; This function calls:
  4595 ;;		Nothing
  4596 ;; This function is called by:
  4597 ;;		_wr1RegCompleteHandler
  4598 ;;		_i2c_write1ByteRegister
  4599 ;;		_rd1RegCompleteHandler
  4600 ;;		_i2c_read1ByteRegister
  4601 ;;		_rd2RegCompleteHandler
  4602 ;;		_wr2RegCompleteHandler
  4603 ;;		_rdBlkRegCompleteHandler
  4604 ;;		_rd1RegCompleteHandler@i2c1_master_example$F145
  4605 ;;		_rd2RegCompleteHandler@i2c1_master_example$F156
  4606 ;;		_wr1RegCompleteHandler@i2c1_master_example$F162
  4607 ;;		_wr2RegCompleteHandler@i2c1_master_example$F168
  4608 ;;		_rdBlkRegCompleteHandler@i2c1_master_example$F179
  4609 ;;		_i2c_writeNBytes
  4610 ;;		_i2c_read2ByteRegister
  4611 ;;		_i2c_write2ByteRegister
  4612 ;;		_i2c_readDataBlock
  4613 ;;		_i2c_readNBytes
  4614 ;;		_I2C1_Read1ByteRegister
  4615 ;;		_I2C1_Read2ByteRegister
  4616 ;;		_I2C1_Write1ByteRegister
  4617 ;;		_I2C1_Write2ByteRegister
  4618 ;;		_I2C1_WriteNBytes
  4619 ;;		_I2C1_ReadNBytes
  4620 ;;		_I2C1_ReadDataBlock
  4621 ;; This function uses a non-reentrant model
  4622 ;;
  4623                           
  4624                           	psect	text55
  4625  0017EC                     __ptext55:
  4626                           	callstack 0
  4627  0017EC                     _I2C1_SetBuffer:
  4628                           	callstack 26
  4629  0017EC                     
  4630                           ;mcc_generated_files/i2c1_master.c: 263: void I2C1_SetBuffer(void *buffer, size_t buffer
      +                          Size);mcc_generated_files/i2c1_master.c: 264: {;mcc_generated_files/i2c1_master.c: 265: 
      +                              if(I2C1_Status.bufferFree)
  4631  0017EC  A62A               	btfss	(_I2C1_Status+41)^0,3,c
  4632  0017EE  EFFB  F00B         	goto	u611
  4633  0017F2  EFFD  F00B         	goto	u610
  4634  0017F6                     u611:
  4635  0017F6  EF06  F00C         	goto	l527
  4636  0017FA                     u610:
  4637  0017FA                     
  4638                           ;mcc_generated_files/i2c1_master.c: 266:     {;mcc_generated_files/i2c1_master.c: 267:  
      +                                 I2C1_Status.data_ptr = buffer;
  4639  0017FA  C03F  F024         	movff	I2C1_SetBuffer@buffer,_I2C1_Status+35
  4640  0017FE  C040  F025         	movff	I2C1_SetBuffer@buffer+1,_I2C1_Status+36
  4641  001802                     
  4642                           ;mcc_generated_files/i2c1_master.c: 268:         I2C1_Status.data_length = bufferSize;
  4643  001802  C041  F026         	movff	I2C1_SetBuffer@bufferSize,_I2C1_Status+37
  4644  001806  C042  F027         	movff	I2C1_SetBuffer@bufferSize+1,_I2C1_Status+38
  4645  00180A                     
  4646                           ;mcc_generated_files/i2c1_master.c: 269:         I2C1_Status.bufferFree = 0;
  4647  00180A  962A               	bcf	(_I2C1_Status+41)^0,3,c
  4648  00180C                     l527:
  4649  00180C  0012               	return		;funcret
  4650  00180E                     __end_of_I2C1_SetBuffer:
  4651                           	callstack 0
  4652                           
  4653 ;; *************** function _I2C1_MasterStop *****************
  4654 ;; Defined at:
  4655 ;;		line 593 in file "mcc_generated_files/i2c1_master.c"
  4656 ;; Parameters:    Size  Location     Type
  4657 ;;		None
  4658 ;; Auto vars:     Size  Location     Type
  4659 ;;		None
  4660 ;; Return value:  Size  Location     Type
  4661 ;;                  1    wreg      void 
  4662 ;; Registers used:
  4663 ;;		None
  4664 ;; Tracked objects:
  4665 ;;		On entry : 0/0
  4666 ;;		On exit  : 0/0
  4667 ;;		Unchanged: 0/0
  4668 ;; Data sizes:     COMRAM   BANK0   BANK1   BANK2   BANK3   BANK4   BANK5   BANK6   BANK7   BANK8   BANK9  BANK10  BANK1
      +1  BANK12  BANK13
  4669 ;;      Params:         0       0       0       0       0       0       0       0       0       0       0       0       
      +0       0       0
  4670 ;;      Locals:         0       0       0       0       0       0       0       0       0       0       0       0       
      +0       0       0
  4671 ;;      Temps:          0       0       0       0       0       0       0       0       0       0       0       0       
      +0       0       0
  4672 ;;      Totals:         0       0       0       0       0       0       0       0       0       0       0       0       
      +0       0       0
  4673 ;;Total ram usage:        0 bytes
  4674 ;; Hardware stack levels used:    1
  4675 ;; This function calls:
  4676 ;;		Nothing
  4677 ;; This function is called by:
  4678 ;;		_I2C1_DO_SEND_STOP
  4679 ;; This function uses a non-reentrant model
  4680 ;;
  4681                           
  4682                           	psect	text56
  4683  0019E0                     __ptext56:
  4684                           	callstack 0
  4685  0019E0                     _I2C1_MasterStop:
  4686                           	callstack 20
  4687  0019E0                     
  4688                           ;mcc_generated_files/i2c1_master.c: 595:     SSP1CON2bits.PEN = 1;
  4689  0019E0  8496               	bsf	150,2,c	;volatile
  4690  0019E2  0012               	return		;funcret
  4691  0019E4                     __end_of_I2C1_MasterStop:
  4692                           	callstack 0
  4693                           
  4694 ;; *************** function _I2C1_MasterEnableRestart *****************
  4695 ;; Defined at:
  4696 ;;		line 573 in file "mcc_generated_files/i2c1_master.c"
  4697 ;; Parameters:    Size  Location     Type
  4698 ;;		None
  4699 ;; Auto vars:     Size  Location     Type
  4700 ;;		None
  4701 ;; Return value:  Size  Location     Type
  4702 ;;                  1    wreg      void 
  4703 ;; Registers used:
  4704 ;;		None
  4705 ;; Tracked objects:
  4706 ;;		On entry : 0/0
  4707 ;;		On exit  : 0/0
  4708 ;;		Unchanged: 0/0
  4709 ;; Data sizes:     COMRAM   BANK0   BANK1   BANK2   BANK3   BANK4   BANK5   BANK6   BANK7   BANK8   BANK9  BANK10  BANK1
      +1  BANK12  BANK13
  4710 ;;      Params:         0       0       0       0       0       0       0       0       0       0       0       0       
      +0       0       0
  4711 ;;      Locals:         0       0       0       0       0       0       0       0       0       0       0       0       
      +0       0       0
  4712 ;;      Temps:          0       0       0       0       0       0       0       0       0       0       0       0       
      +0       0       0
  4713 ;;      Totals:         0       0       0       0       0       0       0       0       0       0       0       0       
      +0       0       0
  4714 ;;Total ram usage:        0 bytes
  4715 ;; Hardware stack levels used:    1
  4716 ;; This function calls:
  4717 ;;		Nothing
  4718 ;; This function is called by:
  4719 ;;		_I2C1_DO_SEND_RESTART_READ
  4720 ;;		_I2C1_DO_SEND_RESTART_WRITE
  4721 ;;		_I2C1_DO_SEND_RESTART
  4722 ;;		_I2C1_DO_RX_EMPTY
  4723 ;; This function uses a non-reentrant model
  4724 ;;
  4725                           
  4726                           	psect	text57
  4727  0019E4                     __ptext57:
  4728                           	callstack 0
  4729  0019E4                     _I2C1_MasterEnableRestart:
  4730                           	callstack 20
  4731  0019E4                     
  4732                           ;mcc_generated_files/i2c1_master.c: 575:     SSP1CON2bits.RSEN = 1;
  4733  0019E4  8296               	bsf	150,1,c	;volatile
  4734  0019E6  0012               	return		;funcret
  4735  0019E8                     __end_of_I2C1_MasterEnableRestart:
  4736                           	callstack 0
  4737                           
  4738 ;; *************** function _I2C1_MasterStart *****************
  4739 ;; Defined at:
  4740 ;;		line 588 in file "mcc_generated_files/i2c1_master.c"
  4741 ;; Parameters:    Size  Location     Type
  4742 ;;		None
  4743 ;; Auto vars:     Size  Location     Type
  4744 ;;		None
  4745 ;; Return value:  Size  Location     Type
  4746 ;;                  1    wreg      void 
  4747 ;; Registers used:
  4748 ;;		None
  4749 ;; Tracked objects:
  4750 ;;		On entry : 0/0
  4751 ;;		On exit  : 0/0
  4752 ;;		Unchanged: 0/0
  4753 ;; Data sizes:     COMRAM   BANK0   BANK1   BANK2   BANK3   BANK4   BANK5   BANK6   BANK7   BANK8   BANK9  BANK10  BANK1
      +1  BANK12  BANK13
  4754 ;;      Params:         0       0       0       0       0       0       0       0       0       0       0       0       
      +0       0       0
  4755 ;;      Locals:         0       0       0       0       0       0       0       0       0       0       0       0       
      +0       0       0
  4756 ;;      Temps:          0       0       0       0       0       0       0       0       0       0       0       0       
      +0       0       0
  4757 ;;      Totals:         0       0       0       0       0       0       0       0       0       0       0       0       
      +0       0       0
  4758 ;;Total ram usage:        0 bytes
  4759 ;; Hardware stack levels used:    1
  4760 ;; This function calls:
  4761 ;;		Nothing
  4762 ;; This function is called by:
  4763 ;;		_I2C1_MasterOperation
  4764 ;; This function uses a non-reentrant model
  4765 ;;
  4766                           
  4767                           	psect	text58
  4768  0019E8                     __ptext58:
  4769                           	callstack 0
  4770  0019E8                     _I2C1_MasterStart:
  4771                           	callstack 24
  4772  0019E8                     
  4773                           ;mcc_generated_files/i2c1_master.c: 590:     SSP1CON2bits.SEN = 1;
  4774  0019E8  8096               	bsf	150,0,c	;volatile
  4775  0019EA  0012               	return		;funcret
  4776  0019EC                     __end_of_I2C1_MasterStart:
  4777                           	callstack 0
  4778                           
  4779 ;; *************** function _I2C1_Close *****************
  4780 ;; Defined at:
  4781 ;;		line 209 in file "mcc_generated_files/i2c1_master.c"
  4782 ;; Parameters:    Size  Location     Type
  4783 ;;		None
  4784 ;; Auto vars:     Size  Location     Type
  4785 ;;  returnValue     1    0[COMRAM] enum E355
  4786 ;; Return value:  Size  Location     Type
  4787 ;;                  1    wreg      enum E355
  4788 ;; Registers used:
  4789 ;;		wreg, status,2, cstack
  4790 ;; Tracked objects:
  4791 ;;		On entry : 0/0
  4792 ;;		On exit  : 0/0
  4793 ;;		Unchanged: 0/0
  4794 ;; Data sizes:     COMRAM   BANK0   BANK1   BANK2   BANK3   BANK4   BANK5   BANK6   BANK7   BANK8   BANK9  BANK10  BANK1
      +1  BANK12  BANK13
  4795 ;;      Params:         0       0       0       0       0       0       0       0       0       0       0       0       
      +0       0       0
  4796 ;;      Locals:         1       0       0       0       0       0       0       0       0       0       0       0       
      +0       0       0
  4797 ;;      Temps:          0       0       0       0       0       0       0       0       0       0       0       0       
      +0       0       0
  4798 ;;      Totals:         1       0       0       0       0       0       0       0       0       0       0       0       
      +0       0       0
  4799 ;;Total ram usage:        1 bytes
  4800 ;; Hardware stack levels used:    1
  4801 ;; Hardware stack levels required when called:    1
  4802 ;; This function calls:
  4803 ;;		_I2C1_MasterClearIrq
  4804 ;;		_I2C1_MasterClose
  4805 ;;		_I2C1_MasterDisableIrq
  4806 ;; This function is called by:
  4807 ;;		_i2c_write1ByteRegister
  4808 ;;		_i2c_read1ByteRegister
  4809 ;;		_i2c_writeNBytes
  4810 ;;		_i2c_read2ByteRegister
  4811 ;;		_i2c_write2ByteRegister
  4812 ;;		_i2c_readDataBlock
  4813 ;;		_i2c_readNBytes
  4814 ;;		_I2C1_Read1ByteRegister
  4815 ;;		_I2C1_Read2ByteRegister
  4816 ;;		_I2C1_Write1ByteRegister
  4817 ;;		_I2C1_Write2ByteRegister
  4818 ;;		_I2C1_WriteNBytes
  4819 ;;		_I2C1_ReadNBytes
  4820 ;;		_I2C1_ReadDataBlock
  4821 ;; This function uses a non-reentrant model
  4822 ;;
  4823                           
  4824                           	psect	text59
  4825  00177E                     __ptext59:
  4826                           	callstack 0
  4827  00177E                     _I2C1_Close:
  4828                           	callstack 25
  4829  00177E                     
  4830                           ;mcc_generated_files/i2c1_master.c: 211:     i2c1_error_t returnValue = I2C1_BUSY;
  4831  00177E  0E01               	movlw	1
  4832  001780  6E3F               	movwf	I2C1_Close@returnValue^0,c
  4833  001782                     
  4834                           ;mcc_generated_files/i2c1_master.c: 212:     if(!I2C1_Status.busy)
  4835  001782  B22A               	btfsc	(_I2C1_Status+41)^0,1,c
  4836  001784  EFC6  F00B         	goto	u791
  4837  001788  EFC8  F00B         	goto	u790
  4838  00178C                     u791:
  4839  00178C  EFD2  F00B         	goto	l3226
  4840  001790                     u790:
  4841  001790                     
  4842                           ;mcc_generated_files/i2c1_master.c: 213:     {;mcc_generated_files/i2c1_master.c: 214:  
      +                                 I2C1_Status.inUse = 0;
  4843  001790  942A               	bcf	(_I2C1_Status+41)^0,2,c
  4844                           
  4845                           ;mcc_generated_files/i2c1_master.c: 215:         I2C1_Status.address = 0xff;
  4846  001792  6823               	setf	(_I2C1_Status+34)^0,c
  4847  001794                     
  4848                           ;mcc_generated_files/i2c1_master.c: 216:         I2C1_MasterClearIrq();
  4849  001794  ECDF  F00C         	call	_I2C1_MasterClearIrq	;wreg free
  4850                           
  4851                           ;mcc_generated_files/i2c1_master.c: 217:         I2C1_MasterDisableIrq();
  4852  001798  ECDC  F00C         	call	_I2C1_MasterDisableIrq	;wreg free
  4853                           
  4854                           ;mcc_generated_files/i2c1_master.c: 218:         I2C1_MasterClose();
  4855  00179C  ECF6  F00C         	call	_I2C1_MasterClose	;wreg free
  4856  0017A0                     
  4857                           ;mcc_generated_files/i2c1_master.c: 219:         returnValue = I2C1_Status.error;
  4858  0017A0  C029  F03F         	movff	_I2C1_Status+40,I2C1_Close@returnValue
  4859  0017A4                     l3226:
  4860                           
  4861                           ;mcc_generated_files/i2c1_master.c: 221:     return returnValue;
  4862  0017A4  503F               	movf	I2C1_Close@returnValue^0,w,c
  4863  0017A6  0012               	return		;funcret
  4864  0017A8                     __end_of_I2C1_Close:
  4865                           	callstack 0
  4866                           
  4867 ;; *************** function _I2C1_MasterDisableIrq *****************
  4868 ;; Defined at:
  4869 ;;		line 635 in file "mcc_generated_files/i2c1_master.c"
  4870 ;; Parameters:    Size  Location     Type
  4871 ;;		None
  4872 ;; Auto vars:     Size  Location     Type
  4873 ;;		None
  4874 ;; Return value:  Size  Location     Type
  4875 ;;                  1    wreg      void 
  4876 ;; Registers used:
  4877 ;;		None
  4878 ;; Tracked objects:
  4879 ;;		On entry : 0/0
  4880 ;;		On exit  : 0/0
  4881 ;;		Unchanged: 0/0
  4882 ;; Data sizes:     COMRAM   BANK0   BANK1   BANK2   BANK3   BANK4   BANK5   BANK6   BANK7   BANK8   BANK9  BANK10  BANK1
      +1  BANK12  BANK13
  4883 ;;      Params:         0       0       0       0       0       0       0       0       0       0       0       0       
      +0       0       0
  4884 ;;      Locals:         0       0       0       0       0       0       0       0       0       0       0       0       
      +0       0       0
  4885 ;;      Temps:          0       0       0       0       0       0       0       0       0       0       0       0       
      +0       0       0
  4886 ;;      Totals:         0       0       0       0       0       0       0       0       0       0       0       0       
      +0       0       0
  4887 ;;Total ram usage:        0 bytes
  4888 ;; Hardware stack levels used:    1
  4889 ;; This function calls:
  4890 ;;		Nothing
  4891 ;; This function is called by:
  4892 ;;		_I2C1_Close
  4893 ;;		_I2C1_SetTimeOut
  4894 ;; This function uses a non-reentrant model
  4895 ;;
  4896                           
  4897                           	psect	text60
  4898  0019B8                     __ptext60:
  4899                           	callstack 0
  4900  0019B8                     _I2C1_MasterDisableIrq:
  4901                           	callstack 25
  4902  0019B8                     
  4903                           ;mcc_generated_files/i2c1_master.c: 637:     PIE3bits.SSP1IE = 0;
  4904  0019B8  010E               	movlb	14	; () banked
  4905  0019BA  912C               	bcf	44,0,b	;volatile
  4906  0019BC                     
  4907                           ; BSR set to: 14
  4908  0019BC  0012               	return		;funcret
  4909  0019BE                     __end_of_I2C1_MasterDisableIrq:
  4910                           	callstack 0
  4911                           
  4912 ;; *************** function _I2C1_MasterClose *****************
  4913 ;; Defined at:
  4914 ;;		line 557 in file "mcc_generated_files/i2c1_master.c"
  4915 ;; Parameters:    Size  Location     Type
  4916 ;;		None
  4917 ;; Auto vars:     Size  Location     Type
  4918 ;;		None
  4919 ;; Return value:  Size  Location     Type
  4920 ;;                  1    wreg      void 
  4921 ;; Registers used:
  4922 ;;		None
  4923 ;; Tracked objects:
  4924 ;;		On entry : 0/0
  4925 ;;		On exit  : 0/0
  4926 ;;		Unchanged: 0/0
  4927 ;; Data sizes:     COMRAM   BANK0   BANK1   BANK2   BANK3   BANK4   BANK5   BANK6   BANK7   BANK8   BANK9  BANK10  BANK1
      +1  BANK12  BANK13
  4928 ;;      Params:         0       0       0       0       0       0       0       0       0       0       0       0       
      +0       0       0
  4929 ;;      Locals:         0       0       0       0       0       0       0       0       0       0       0       0       
      +0       0       0
  4930 ;;      Temps:          0       0       0       0       0       0       0       0       0       0       0       0       
      +0       0       0
  4931 ;;      Totals:         0       0       0       0       0       0       0       0       0       0       0       0       
      +0       0       0
  4932 ;;Total ram usage:        0 bytes
  4933 ;; Hardware stack levels used:    1
  4934 ;; This function calls:
  4935 ;;		Nothing
  4936 ;; This function is called by:
  4937 ;;		_I2C1_Close
  4938 ;; This function uses a non-reentrant model
  4939 ;;
  4940                           
  4941                           	psect	text61
  4942  0019EC                     __ptext61:
  4943                           	callstack 0
  4944  0019EC                     _I2C1_MasterClose:
  4945                           	callstack 25
  4946  0019EC                     
  4947                           ;mcc_generated_files/i2c1_master.c: 560:     SSP1CON1bits.SSPEN = 0;
  4948  0019EC  9A95               	bcf	149,5,c	;volatile
  4949  0019EE  0012               	return		;funcret
  4950  0019F0                     __end_of_I2C1_MasterClose:
  4951                           	callstack 0
  4952                           
  4953 ;; *************** function _I2C1_MasterClearIrq *****************
  4954 ;; Defined at:
  4955 ;;		line 640 in file "mcc_generated_files/i2c1_master.c"
  4956 ;; Parameters:    Size  Location     Type
  4957 ;;		None
  4958 ;; Auto vars:     Size  Location     Type
  4959 ;;		None
  4960 ;; Return value:  Size  Location     Type
  4961 ;;                  1    wreg      void 
  4962 ;; Registers used:
  4963 ;;		None
  4964 ;; Tracked objects:
  4965 ;;		On entry : 0/0
  4966 ;;		On exit  : 0/0
  4967 ;;		Unchanged: 0/0
  4968 ;; Data sizes:     COMRAM   BANK0   BANK1   BANK2   BANK3   BANK4   BANK5   BANK6   BANK7   BANK8   BANK9  BANK10  BANK1
      +1  BANK12  BANK13
  4969 ;;      Params:         0       0       0       0       0       0       0       0       0       0       0       0       
      +0       0       0
  4970 ;;      Locals:         0       0       0       0       0       0       0       0       0       0       0       0       
      +0       0       0
  4971 ;;      Temps:          0       0       0       0       0       0       0       0       0       0       0       0       
      +0       0       0
  4972 ;;      Totals:         0       0       0       0       0       0       0       0       0       0       0       0       
      +0       0       0
  4973 ;;Total ram usage:        0 bytes
  4974 ;; Hardware stack levels used:    1
  4975 ;; This function calls:
  4976 ;;		Nothing
  4977 ;; This function is called by:
  4978 ;;		_I2C1_Open
  4979 ;;		_I2C1_Close
  4980 ;;		_I2C1_MasterFsm
  4981 ;; This function uses a non-reentrant model
  4982 ;;
  4983                           
  4984                           	psect	text62
  4985  0019BE                     __ptext62:
  4986                           	callstack 0
  4987  0019BE                     _I2C1_MasterClearIrq:
  4988                           	callstack 25
  4989  0019BE                     
  4990                           ;mcc_generated_files/i2c1_master.c: 642:     PIR3bits.SSP1IF = 0;
  4991  0019BE  010E               	movlb	14	; () banked
  4992  0019C0  9136               	bcf	54,0,b	;volatile
  4993  0019C2                     
  4994                           ; BSR set to: 14
  4995  0019C2  0012               	return		;funcret
  4996  0019C4                     __end_of_I2C1_MasterClearIrq:
  4997                           	callstack 0
  4998                           
  4999 ;; *************** function _TMR0_Initialize *****************
  5000 ;; Defined at:
  5001 ;;		line 60 in file "mcc_generated_files/tmr0.c"
  5002 ;; Parameters:    Size  Location     Type
  5003 ;;		None
  5004 ;; Auto vars:     Size  Location     Type
  5005 ;;		None
  5006 ;; Return value:  Size  Location     Type
  5007 ;;                  1    wreg      void 
  5008 ;; Registers used:
  5009 ;;		wreg, status,2
  5010 ;; Tracked objects:
  5011 ;;		On entry : 0/0
  5012 ;;		On exit  : 0/0
  5013 ;;		Unchanged: 0/0
  5014 ;; Data sizes:     COMRAM   BANK0   BANK1   BANK2   BANK3   BANK4   BANK5   BANK6   BANK7   BANK8   BANK9  BANK10  BANK1
      +1  BANK12  BANK13
  5015 ;;      Params:         0       0       0       0       0       0       0       0       0       0       0       0       
      +0       0       0
  5016 ;;      Locals:         0       0       0       0       0       0       0       0       0       0       0       0       
      +0       0       0
  5017 ;;      Temps:          0       0       0       0       0       0       0       0       0       0       0       0       
      +0       0       0
  5018 ;;      Totals:         0       0       0       0       0       0       0       0       0       0       0       0       
      +0       0       0
  5019 ;;Total ram usage:        0 bytes
  5020 ;; Hardware stack levels used:    1
  5021 ;; This function calls:
  5022 ;;		Nothing
  5023 ;; This function is called by:
  5024 ;;		_SYSTEM_Initialize
  5025 ;; This function uses a non-reentrant model
  5026 ;;
  5027                           
  5028                           	psect	text63
  5029  0018C6                     __ptext63:
  5030                           	callstack 0
  5031  0018C6                     _TMR0_Initialize:
  5032                           	callstack 29
  5033  0018C6                     
  5034                           ;mcc_generated_files/tmr0.c: 65:     T0CON1 = 0x4D;
  5035  0018C6  0E4D               	movlw	77
  5036  0018C8  6ED6               	movwf	214,c	;volatile
  5037                           
  5038                           ;mcc_generated_files/tmr0.c: 68:     TMR0H = 0x1E;
  5039  0018CA  0E1E               	movlw	30
  5040  0018CC  6ED4               	movwf	212,c	;volatile
  5041                           
  5042                           ;mcc_generated_files/tmr0.c: 71:     TMR0L = 0x00;
  5043  0018CE  0E00               	movlw	0
  5044  0018D0  6ED3               	movwf	211,c	;volatile
  5045  0018D2                     
  5046                           ;mcc_generated_files/tmr0.c: 74:     PIR0bits.TMR0IF = 0;
  5047  0018D2  010E               	movlb	14	; () banked
  5048  0018D4  9B33               	bcf	51,5,b	;volatile
  5049                           
  5050                           ;mcc_generated_files/tmr0.c: 77:     T0CON0 = 0x8F;
  5051  0018D6  0E8F               	movlw	143
  5052  0018D8  6ED5               	movwf	213,c	;volatile
  5053  0018DA                     
  5054                           ; BSR set to: 14
  5055  0018DA  0012               	return		;funcret
  5056  0018DC                     __end_of_TMR0_Initialize:
  5057                           	callstack 0
  5058                           
  5059 ;; *************** function _PMD_Initialize *****************
  5060 ;; Defined at:
  5061 ;;		line 74 in file "mcc_generated_files/mcc.c"
  5062 ;; Parameters:    Size  Location     Type
  5063 ;;		None
  5064 ;; Auto vars:     Size  Location     Type
  5065 ;;		None
  5066 ;; Return value:  Size  Location     Type
  5067 ;;                  1    wreg      void 
  5068 ;; Registers used:
  5069 ;;		wreg, status,2
  5070 ;; Tracked objects:
  5071 ;;		On entry : 0/0
  5072 ;;		On exit  : 0/0
  5073 ;;		Unchanged: 0/0
  5074 ;; Data sizes:     COMRAM   BANK0   BANK1   BANK2   BANK3   BANK4   BANK5   BANK6   BANK7   BANK8   BANK9  BANK10  BANK1
      +1  BANK12  BANK13
  5075 ;;      Params:         0       0       0       0       0       0       0       0       0       0       0       0       
      +0       0       0
  5076 ;;      Locals:         0       0       0       0       0       0       0       0       0       0       0       0       
      +0       0       0
  5077 ;;      Temps:          0       0       0       0       0       0       0       0       0       0       0       0       
      +0       0       0
  5078 ;;      Totals:         0       0       0       0       0       0       0       0       0       0       0       0       
      +0       0       0
  5079 ;;Total ram usage:        0 bytes
  5080 ;; Hardware stack levels used:    1
  5081 ;; This function calls:
  5082 ;;		Nothing
  5083 ;; This function is called by:
  5084 ;;		_SYSTEM_Initialize
  5085 ;; This function uses a non-reentrant model
  5086 ;;
  5087                           
  5088                           	psect	text64
  5089  001862                     __ptext64:
  5090                           	callstack 0
  5091  001862                     _PMD_Initialize:
  5092                           	callstack 29
  5093  001862                     
  5094                           ;mcc_generated_files/mcc.c: 77:     PMD0 = 0x00;
  5095  001862  0E00               	movlw	0
  5096  001864  010E               	movlb	14	; () banked
  5097  001866  6F4C               	movwf	76,b	;volatile
  5098                           
  5099                           ;mcc_generated_files/mcc.c: 79:     PMD1 = 0x00;
  5100  001868  0E00               	movlw	0
  5101  00186A  6F4D               	movwf	77,b	;volatile
  5102                           
  5103                           ;mcc_generated_files/mcc.c: 81:     PMD2 = 0x00;
  5104  00186C  0E00               	movlw	0
  5105  00186E  6F4E               	movwf	78,b	;volatile
  5106                           
  5107                           ;mcc_generated_files/mcc.c: 83:     PMD3 = 0x00;
  5108  001870  0E00               	movlw	0
  5109  001872  6F4F               	movwf	79,b	;volatile
  5110                           
  5111                           ;mcc_generated_files/mcc.c: 85:     PMD4 = 0x00;
  5112  001874  0E00               	movlw	0
  5113  001876  6F50               	movwf	80,b	;volatile
  5114                           
  5115                           ;mcc_generated_files/mcc.c: 87:     PMD5 = 0x00;
  5116  001878  0E00               	movlw	0
  5117  00187A  6F51               	movwf	81,b	;volatile
  5118  00187C                     
  5119                           ; BSR set to: 14
  5120  00187C  0012               	return		;funcret
  5121  00187E                     __end_of_PMD_Initialize:
  5122                           	callstack 0
  5123                           
  5124 ;; *************** function _PIN_MANAGER_Initialize *****************
  5125 ;; Defined at:
  5126 ;;		line 55 in file "mcc_generated_files/pin_manager.c"
  5127 ;; Parameters:    Size  Location     Type
  5128 ;;		None
  5129 ;; Auto vars:     Size  Location     Type
  5130 ;;		None
  5131 ;; Return value:  Size  Location     Type
  5132 ;;                  1    wreg      void 
  5133 ;; Registers used:
  5134 ;;		wreg, status,2
  5135 ;; Tracked objects:
  5136 ;;		On entry : 0/0
  5137 ;;		On exit  : 0/0
  5138 ;;		Unchanged: 0/0
  5139 ;; Data sizes:     COMRAM   BANK0   BANK1   BANK2   BANK3   BANK4   BANK5   BANK6   BANK7   BANK8   BANK9  BANK10  BANK1
      +1  BANK12  BANK13
  5140 ;;      Params:         0       0       0       0       0       0       0       0       0       0       0       0       
      +0       0       0
  5141 ;;      Locals:         0       0       0       0       0       0       0       0       0       0       0       0       
      +0       0       0
  5142 ;;      Temps:          0       0       0       0       0       0       0       0       0       0       0       0       
      +0       0       0
  5143 ;;      Totals:         0       0       0       0       0       0       0       0       0       0       0       0       
      +0       0       0
  5144 ;;Total ram usage:        0 bytes
  5145 ;; Hardware stack levels used:    1
  5146 ;; This function calls:
  5147 ;;		Nothing
  5148 ;; This function is called by:
  5149 ;;		_SYSTEM_Initialize
  5150 ;; This function uses a non-reentrant model
  5151 ;;
  5152                           
  5153                           	psect	text65
  5154  000F38                     __ptext65:
  5155                           	callstack 0
  5156  000F38                     _PIN_MANAGER_Initialize:
  5157                           	callstack 29
  5158  000F38                     
  5159                           ;mcc_generated_files/pin_manager.c: 60:     LATE = 0x00;
  5160  000F38  0E00               	movlw	0
  5161  000F3A  6E7D               	movwf	125,c	;volatile
  5162                           
  5163                           ;mcc_generated_files/pin_manager.c: 61:     LATD = 0x02;
  5164  000F3C  0E02               	movlw	2
  5165  000F3E  6E7C               	movwf	124,c	;volatile
  5166                           
  5167                           ;mcc_generated_files/pin_manager.c: 62:     LATA = 0x00;
  5168  000F40  0E00               	movlw	0
  5169  000F42  6E79               	movwf	121,c	;volatile
  5170                           
  5171                           ;mcc_generated_files/pin_manager.c: 63:     LATF = 0x00;
  5172  000F44  0E00               	movlw	0
  5173  000F46  6E7E               	movwf	126,c	;volatile
  5174                           
  5175                           ;mcc_generated_files/pin_manager.c: 64:     LATB = 0x00;
  5176  000F48  0E00               	movlw	0
  5177  000F4A  6E7A               	movwf	122,c	;volatile
  5178                           
  5179                           ;mcc_generated_files/pin_manager.c: 65:     LATG = 0x00;
  5180  000F4C  0E00               	movlw	0
  5181  000F4E  6E7F               	movwf	127,c	;volatile
  5182                           
  5183                           ;mcc_generated_files/pin_manager.c: 66:     LATC = 0x80;
  5184  000F50  0E80               	movlw	128
  5185  000F52  6E7B               	movwf	123,c	;volatile
  5186                           
  5187                           ;mcc_generated_files/pin_manager.c: 67:     LATH = 0x00;
  5188  000F54  0E00               	movlw	0
  5189  000F56  6E80               	movwf	128,c	;volatile
  5190  000F58                     
  5191                           ;mcc_generated_files/pin_manager.c: 72:     TRISE = 0xFF;
  5192  000F58  6885               	setf	133,c	;volatile
  5193  000F5A                     
  5194                           ;mcc_generated_files/pin_manager.c: 73:     TRISF = 0xFF;
  5195  000F5A  6886               	setf	134,c	;volatile
  5196  000F5C                     
  5197                           ;mcc_generated_files/pin_manager.c: 74:     TRISA = 0xFF;
  5198  000F5C  6881               	setf	129,c	;volatile
  5199                           
  5200                           ;mcc_generated_files/pin_manager.c: 75:     TRISG = 0xDF;
  5201  000F5E  0EDF               	movlw	223
  5202  000F60  6E87               	movwf	135,c	;volatile
  5203  000F62                     
  5204                           ;mcc_generated_files/pin_manager.c: 76:     TRISB = 0xFF;
  5205  000F62  6882               	setf	130,c	;volatile
  5206                           
  5207                           ;mcc_generated_files/pin_manager.c: 77:     TRISH = 0x0F;
  5208  000F64  0E0F               	movlw	15
  5209  000F66  6E88               	movwf	136,c	;volatile
  5210  000F68                     
  5211                           ;mcc_generated_files/pin_manager.c: 78:     TRISC = 0xFF;
  5212  000F68  6883               	setf	131,c	;volatile
  5213                           
  5214                           ;mcc_generated_files/pin_manager.c: 79:     TRISD = 0xFD;
  5215  000F6A  0EFD               	movlw	253
  5216  000F6C  6E84               	movwf	132,c	;volatile
  5217                           
  5218                           ;mcc_generated_files/pin_manager.c: 84:     ANSELD = 0xFD;
  5219  000F6E  0EFD               	movlw	253
  5220  000F70  010E               	movlb	14	; () banked
  5221  000F72  6FA7               	movwf	167,b	;volatile
  5222  000F74                     
  5223                           ; BSR set to: 14
  5224                           ;mcc_generated_files/pin_manager.c: 85:     ANSELB = 0xFF;
  5225  000F74  699A               	setf	154,b	;volatile
  5226  000F76                     
  5227                           ; BSR set to: 14
  5228                           ;mcc_generated_files/pin_manager.c: 86:     ANSELE = 0xFF;
  5229  000F76  69AF               	setf	175,b	;volatile
  5230  000F78                     
  5231                           ; BSR set to: 14
  5232                           ;mcc_generated_files/pin_manager.c: 87:     ANSELG = 0xFF;
  5233  000F78  69BC               	setf	188,b	;volatile
  5234  000F7A                     
  5235                           ; BSR set to: 14
  5236                           ;mcc_generated_files/pin_manager.c: 88:     ANSELF = 0xFF;
  5237  000F7A  69B4               	setf	180,b	;volatile
  5238  000F7C                     
  5239                           ; BSR set to: 14
  5240                           ;mcc_generated_files/pin_manager.c: 89:     ANSELA = 0xFF;
  5241  000F7C  6992               	setf	146,b	;volatile
  5242                           
  5243                           ;mcc_generated_files/pin_manager.c: 94:     WPUD = 0x00;
  5244  000F7E  0E00               	movlw	0
  5245  000F80  6FA6               	movwf	166,b	;volatile
  5246                           
  5247                           ;mcc_generated_files/pin_manager.c: 95:     WPUF = 0x00;
  5248  000F82  0E00               	movlw	0
  5249  000F84  6FB3               	movwf	179,b	;volatile
  5250                           
  5251                           ;mcc_generated_files/pin_manager.c: 96:     WPUE = 0x00;
  5252  000F86  0E00               	movlw	0
  5253  000F88  6FAE               	movwf	174,b	;volatile
  5254                           
  5255                           ;mcc_generated_files/pin_manager.c: 97:     WPUB = 0x00;
  5256  000F8A  0E00               	movlw	0
  5257  000F8C  6F99               	movwf	153,b	;volatile
  5258                           
  5259                           ;mcc_generated_files/pin_manager.c: 98:     WPUG = 0x00;
  5260  000F8E  0E00               	movlw	0
  5261  000F90  6FBB               	movwf	187,b	;volatile
  5262                           
  5263                           ;mcc_generated_files/pin_manager.c: 99:     WPUA = 0x00;
  5264  000F92  0E00               	movlw	0
  5265  000F94  6F91               	movwf	145,b	;volatile
  5266                           
  5267                           ;mcc_generated_files/pin_manager.c: 100:     WPUC = 0x00;
  5268  000F96  0E00               	movlw	0
  5269  000F98  6FA1               	movwf	161,b	;volatile
  5270                           
  5271                           ;mcc_generated_files/pin_manager.c: 101:     WPUH = 0x00;
  5272  000F9A  0E00               	movlw	0
  5273  000F9C  6FC0               	movwf	192,b	;volatile
  5274                           
  5275                           ;mcc_generated_files/pin_manager.c: 106:     ODCONE = 0x00;
  5276  000F9E  0E00               	movlw	0
  5277  000FA0  6FAD               	movwf	173,b	;volatile
  5278                           
  5279                           ;mcc_generated_files/pin_manager.c: 107:     ODCONF = 0x00;
  5280  000FA2  0E00               	movlw	0
  5281  000FA4  6FB2               	movwf	178,b	;volatile
  5282                           
  5283                           ;mcc_generated_files/pin_manager.c: 108:     ODCONA = 0x00;
  5284  000FA6  0E00               	movlw	0
  5285  000FA8  6F90               	movwf	144,b	;volatile
  5286                           
  5287                           ;mcc_generated_files/pin_manager.c: 109:     ODCONG = 0x00;
  5288  000FAA  0E00               	movlw	0
  5289  000FAC  6FBA               	movwf	186,b	;volatile
  5290                           
  5291                           ;mcc_generated_files/pin_manager.c: 110:     ODCONB = 0x00;
  5292  000FAE  0E00               	movlw	0
  5293  000FB0  6F98               	movwf	152,b	;volatile
  5294                           
  5295                           ;mcc_generated_files/pin_manager.c: 111:     ODCONH = 0x00;
  5296  000FB2  0E00               	movlw	0
  5297  000FB4  6FBF               	movwf	191,b	;volatile
  5298                           
  5299                           ;mcc_generated_files/pin_manager.c: 112:     ODCONC = 0x00;
  5300  000FB6  0E00               	movlw	0
  5301  000FB8  6FA0               	movwf	160,b	;volatile
  5302                           
  5303                           ;mcc_generated_files/pin_manager.c: 113:     ODCOND = 0x00;
  5304  000FBA  0E00               	movlw	0
  5305  000FBC  6FA5               	movwf	165,b	;volatile
  5306  000FBE                     
  5307                           ; BSR set to: 14
  5308                           ;mcc_generated_files/pin_manager.c: 118:     SLRCONA = 0xFF;
  5309  000FBE  698F               	setf	143,b	;volatile
  5310  000FC0                     
  5311                           ; BSR set to: 14
  5312                           ;mcc_generated_files/pin_manager.c: 119:     SLRCONB = 0xFF;
  5313  000FC0  6997               	setf	151,b	;volatile
  5314  000FC2                     
  5315                           ; BSR set to: 14
  5316                           ;mcc_generated_files/pin_manager.c: 120:     SLRCONC = 0xFF;
  5317  000FC2  699F               	setf	159,b	;volatile
  5318  000FC4                     
  5319                           ; BSR set to: 14
  5320                           ;mcc_generated_files/pin_manager.c: 121:     SLRCOND = 0xFF;
  5321  000FC4  69A4               	setf	164,b	;volatile
  5322  000FC6                     
  5323                           ; BSR set to: 14
  5324                           ;mcc_generated_files/pin_manager.c: 122:     SLRCONE = 0xFF;
  5325  000FC6  69AC               	setf	172,b	;volatile
  5326  000FC8                     
  5327                           ; BSR set to: 14
  5328                           ;mcc_generated_files/pin_manager.c: 123:     SLRCONF = 0xFF;
  5329  000FC8  69B1               	setf	177,b	;volatile
  5330  000FCA                     
  5331                           ; BSR set to: 14
  5332                           ;mcc_generated_files/pin_manager.c: 124:     SLRCONG = 0xFF;
  5333  000FCA  69B9               	setf	185,b	;volatile
  5334  000FCC                     
  5335                           ; BSR set to: 14
  5336                           ;mcc_generated_files/pin_manager.c: 125:     SLRCONH = 0xFF;
  5337  000FCC  69BE               	setf	190,b	;volatile
  5338  000FCE                     
  5339                           ; BSR set to: 14
  5340                           ;mcc_generated_files/pin_manager.c: 130:     INLVLA = 0xFF;
  5341  000FCE  698E               	setf	142,b	;volatile
  5342  000FD0                     
  5343                           ; BSR set to: 14
  5344                           ;mcc_generated_files/pin_manager.c: 131:     INLVLB = 0xFF;
  5345  000FD0  6996               	setf	150,b	;volatile
  5346  000FD2                     
  5347                           ; BSR set to: 14
  5348                           ;mcc_generated_files/pin_manager.c: 132:     INLVLC = 0xFF;
  5349  000FD2  699E               	setf	158,b	;volatile
  5350  000FD4                     
  5351                           ; BSR set to: 14
  5352                           ;mcc_generated_files/pin_manager.c: 133:     INLVLD = 0xFF;
  5353  000FD4  69A3               	setf	163,b	;volatile
  5354  000FD6                     
  5355                           ; BSR set to: 14
  5356                           ;mcc_generated_files/pin_manager.c: 134:     INLVLE = 0xFF;
  5357  000FD6  69AB               	setf	171,b	;volatile
  5358  000FD8                     
  5359                           ; BSR set to: 14
  5360                           ;mcc_generated_files/pin_manager.c: 135:     INLVLF = 0xFF;
  5361  000FD8  69B0               	setf	176,b	;volatile
  5362  000FDA                     
  5363                           ; BSR set to: 14
  5364                           ;mcc_generated_files/pin_manager.c: 136:     INLVLG = 0xFF;
  5365  000FDA  69B8               	setf	184,b	;volatile
  5366  000FDC                     
  5367                           ; BSR set to: 14
  5368                           ;mcc_generated_files/pin_manager.c: 137:     INLVLH = 0xFF;
  5369  000FDC  69BD               	setf	189,b	;volatile
  5370                           
  5371                           ;mcc_generated_files/pin_manager.c: 146:     SSP1CLKPPS = 0x13;
  5372  000FDE  0E13               	movlw	19
  5373  000FE0  6F19               	movwf	25,b	;volatile
  5374                           
  5375                           ;mcc_generated_files/pin_manager.c: 147:     RC3PPS = 0x19;
  5376  000FE2  0E19               	movlw	25
  5377  000FE4  6F65               	movwf	101,b	;volatile
  5378                           
  5379                           ;mcc_generated_files/pin_manager.c: 148:     RC5PPS = 0x1A;
  5380  000FE6  0E1A               	movlw	26
  5381  000FE8  6F67               	movwf	103,b	;volatile
  5382                           
  5383                           ;mcc_generated_files/pin_manager.c: 149:     SSP1DATPPS = 0x15;
  5384  000FEA  0E15               	movlw	21
  5385  000FEC  6F1A               	movwf	26,b	;volatile
  5386  000FEE                     
  5387                           ; BSR set to: 14
  5388  000FEE  0012               	return		;funcret
  5389  000FF0                     __end_of_PIN_MANAGER_Initialize:
  5390                           	callstack 0
  5391                           
  5392 ;; *************** function _OSCILLATOR_Initialize *****************
  5393 ;; Defined at:
  5394 ;;		line 60 in file "mcc_generated_files/mcc.c"
  5395 ;; Parameters:    Size  Location     Type
  5396 ;;		None
  5397 ;; Auto vars:     Size  Location     Type
  5398 ;;		None
  5399 ;; Return value:  Size  Location     Type
  5400 ;;                  1    wreg      void 
  5401 ;; Registers used:
  5402 ;;		wreg, status,2
  5403 ;; Tracked objects:
  5404 ;;		On entry : 0/0
  5405 ;;		On exit  : 0/0
  5406 ;;		Unchanged: 0/0
  5407 ;; Data sizes:     COMRAM   BANK0   BANK1   BANK2   BANK3   BANK4   BANK5   BANK6   BANK7   BANK8   BANK9  BANK10  BANK1
      +1  BANK12  BANK13
  5408 ;;      Params:         0       0       0       0       0       0       0       0       0       0       0       0       
      +0       0       0
  5409 ;;      Locals:         0       0       0       0       0       0       0       0       0       0       0       0       
      +0       0       0
  5410 ;;      Temps:          0       0       0       0       0       0       0       0       0       0       0       0       
      +0       0       0
  5411 ;;      Totals:         0       0       0       0       0       0       0       0       0       0       0       0       
      +0       0       0
  5412 ;;Total ram usage:        0 bytes
  5413 ;; Hardware stack levels used:    1
  5414 ;; This function calls:
  5415 ;;		Nothing
  5416 ;; This function is called by:
  5417 ;;		_SYSTEM_Initialize
  5418 ;; This function uses a non-reentrant model
  5419 ;;
  5420                           
  5421                           	psect	text66
  5422  001898                     __ptext66:
  5423                           	callstack 0
  5424  001898                     _OSCILLATOR_Initialize:
  5425                           	callstack 29
  5426  001898                     
  5427                           ;mcc_generated_files/mcc.c: 63:     OSCCON1 = 0x62;
  5428  001898  0E62               	movlw	98
  5429  00189A  010E               	movlb	14	; () banked
  5430  00189C  6F43               	movwf	67,b	;volatile
  5431                           
  5432                           ;mcc_generated_files/mcc.c: 65:     OSCCON3 = 0x00;
  5433  00189E  0E00               	movlw	0
  5434  0018A0  6F45               	movwf	69,b	;volatile
  5435                           
  5436                           ;mcc_generated_files/mcc.c: 67:     OSCEN = 0x00;
  5437  0018A2  0E00               	movlw	0
  5438  0018A4  6F47               	movwf	71,b	;volatile
  5439                           
  5440                           ;mcc_generated_files/mcc.c: 69:     OSCFRQ = 0x08;
  5441  0018A6  0E08               	movlw	8
  5442  0018A8  6F49               	movwf	73,b	;volatile
  5443                           
  5444                           ;mcc_generated_files/mcc.c: 71:     OSCTUNE = 0x00;
  5445  0018AA  0E00               	movlw	0
  5446  0018AC  6F48               	movwf	72,b	;volatile
  5447  0018AE                     
  5448                           ; BSR set to: 14
  5449  0018AE  0012               	return		;funcret
  5450  0018B0                     __end_of_OSCILLATOR_Initialize:
  5451                           	callstack 0
  5452                           
  5453 ;; *************** function _I2C1_Initialize *****************
  5454 ;; Defined at:
  5455 ;;		line 167 in file "mcc_generated_files/i2c1_master.c"
  5456 ;; Parameters:    Size  Location     Type
  5457 ;;		None
  5458 ;; Auto vars:     Size  Location     Type
  5459 ;;		None
  5460 ;; Return value:  Size  Location     Type
  5461 ;;                  1    wreg      void 
  5462 ;; Registers used:
  5463 ;;		wreg, status,2
  5464 ;; Tracked objects:
  5465 ;;		On entry : 0/0
  5466 ;;		On exit  : 0/0
  5467 ;;		Unchanged: 0/0
  5468 ;; Data sizes:     COMRAM   BANK0   BANK1   BANK2   BANK3   BANK4   BANK5   BANK6   BANK7   BANK8   BANK9  BANK10  BANK1
      +1  BANK12  BANK13
  5469 ;;      Params:         0       0       0       0       0       0       0       0       0       0       0       0       
      +0       0       0
  5470 ;;      Locals:         0       0       0       0       0       0       0       0       0       0       0       0       
      +0       0       0
  5471 ;;      Temps:          0       0       0       0       0       0       0       0       0       0       0       0       
      +0       0       0
  5472 ;;      Totals:         0       0       0       0       0       0       0       0       0       0       0       0       
      +0       0       0
  5473 ;;Total ram usage:        0 bytes
  5474 ;; Hardware stack levels used:    1
  5475 ;; This function calls:
  5476 ;;		Nothing
  5477 ;; This function is called by:
  5478 ;;		_SYSTEM_Initialize
  5479 ;; This function uses a non-reentrant model
  5480 ;;
  5481                           
  5482                           	psect	text67
  5483  0018F0                     __ptext67:
  5484                           	callstack 0
  5485  0018F0                     _I2C1_Initialize:
  5486                           	callstack 29
  5487  0018F0                     
  5488                           ;mcc_generated_files/i2c1_master.c: 169:     SSP1STAT = 0x00;
  5489  0018F0  0E00               	movlw	0
  5490  0018F2  6E94               	movwf	148,c	;volatile
  5491                           
  5492                           ;mcc_generated_files/i2c1_master.c: 170:     SSP1CON1 = 0x08;
  5493  0018F4  0E08               	movlw	8
  5494  0018F6  6E95               	movwf	149,c	;volatile
  5495                           
  5496                           ;mcc_generated_files/i2c1_master.c: 171:     SSP1CON2 = 0x00;
  5497  0018F8  0E00               	movlw	0
  5498  0018FA  6E96               	movwf	150,c	;volatile
  5499                           
  5500                           ;mcc_generated_files/i2c1_master.c: 172:     SSP1ADD = 0x27;
  5501  0018FC  0E27               	movlw	39
  5502  0018FE  6E92               	movwf	146,c	;volatile
  5503  001900                     
  5504                           ;mcc_generated_files/i2c1_master.c: 173:     SSP1CON1bits.SSPEN = 0;
  5505  001900  9A95               	bcf	149,5,c	;volatile
  5506  001902  0012               	return		;funcret
  5507  001904                     __end_of_I2C1_Initialize:
  5508                           	callstack 0
  5509                           
  5510                           	psect	text68
  5511  000000                     __ptext68:
  5512                           	callstack 0
  5513  000000                     
  5514                           	psect	rparam
  5515  0000                     
  5516                           	psect	idloc
  5517                           
  5518                           ;Config register IDLOC0 @ 0x200000
  5519                           ;	unspecified, using default values
  5520  200000                     	org	2097152
  5521  200000  0FFF               	dw	4095
  5522                           
  5523                           ;Config register IDLOC1 @ 0x200002
  5524                           ;	unspecified, using default values
  5525  200002                     	org	2097154
  5526  200002  0FFF               	dw	4095
  5527                           
  5528                           ;Config register IDLOC2 @ 0x200004
  5529                           ;	unspecified, using default values
  5530  200004                     	org	2097156
  5531  200004  0FFF               	dw	4095
  5532                           
  5533                           ;Config register IDLOC3 @ 0x200006
  5534                           ;	unspecified, using default values
  5535  200006                     	org	2097158
  5536  200006  0FFF               	dw	4095
  5537                           
  5538                           ;Config register IDLOC4 @ 0x200008
  5539                           ;	unspecified, using default values
  5540  200008                     	org	2097160
  5541  200008  0FFF               	dw	4095
  5542                           
  5543                           ;Config register IDLOC5 @ 0x20000A
  5544                           ;	unspecified, using default values
  5545  20000A                     	org	2097162
  5546  20000A  0FFF               	dw	4095
  5547                           
  5548                           ;Config register IDLOC6 @ 0x20000C
  5549                           ;	unspecified, using default values
  5550  20000C                     	org	2097164
  5551  20000C  0FFF               	dw	4095
  5552                           
  5553                           ;Config register IDLOC7 @ 0x20000E
  5554                           ;	unspecified, using default values
  5555  20000E                     	org	2097166
  5556  20000E  0FFF               	dw	4095
  5557                           
  5558                           	psect	config
  5559                           
  5560                           ;Config register CONFIG1L @ 0x300000
  5561                           ;	External Oscillator mode Selection bits
  5562                           ;	FEXTOSC = OFF, Oscillator not enabled
  5563                           ;	Power-up default value for COSC bits
  5564                           ;	RSTOSC = HFINTOSC_64MHZ, HFINTOSC with HFFRQ = 64 MHz and CDIV = 1:1
  5565  300000                     	org	3145728
  5566  300000  8C                 	db	140
  5567                           
  5568                           ;Config register CONFIG1H @ 0x300001
  5569                           ;	Clock Out Enable bit
  5570                           ;	CLKOUTEN = OFF, CLKOUT function is disabled
  5571                           ;	Clock Switch Enable bit
  5572                           ;	CSWEN = ON, Writing to NOSC and NDIV is allowed
  5573                           ;	Fail-Safe Clock Monitor Enable bit
  5574                           ;	FCMEN = ON, Fail-Safe Clock Monitor enabled
  5575  300001                     	org	3145729
  5576  300001  FF                 	db	255
  5577                           
  5578                           ;Config register CONFIG2L @ 0x300002
  5579                           ;	Master Clear Enable bit
  5580                           ;	MCLRE = EXTMCLR, If LVP = 0, MCLR pin is MCLR; If LVP = 1, RG5 pin function is MCLR
  5581                           ;	Power-up Timer Enable bit
  5582                           ;	PWRTE = OFF, Power up timer disabled
  5583                           ;	Low-power BOR enable bit
  5584                           ;	LPBOREN = OFF, ULPBOR disabled
  5585                           ;	Brown-out Reset Enable bits
  5586                           ;	BOREN = SBORDIS, Brown-out Reset enabled , SBOREN bit is ignored
  5587  300002                     	org	3145730
  5588  300002  FF                 	db	255
  5589                           
  5590                           ;Config register CONFIG2H @ 0x300003
  5591                           ;	Brown Out Reset Voltage selection bits
  5592                           ;	BORV = VBOR_2P45, Brown-out Reset Voltage (VBOR) set to 2.45V
  5593                           ;	ZCD Disable bit
  5594                           ;	ZCD = OFF, ZCD disabled. ZCD can be enabled by setting the ZCDSEN bit of ZCDCON
  5595                           ;	PPSLOCK bit One-Way Set Enable bit
  5596                           ;	PPS1WAY = ON, PPSLOCK bit can be cleared and set only once; PPS registers remain locke
      +                          d after one clear/set cycle
  5597                           ;	Stack Full/Underflow Reset Enable bit
  5598                           ;	STVREN = ON, Stack full/underflow will cause Reset
  5599                           ;	Debugger Enable bit
  5600                           ;	DEBUG = OFF, Background debugger disabled
  5601                           ;	Extended Instruction Set Enable bit
  5602                           ;	XINST = OFF, Extended Instruction Set and Indexed Addressing Mode disabled
  5603  300003                     	org	3145731
  5604  300003  FF                 	db	255
  5605                           
  5606                           ;Config register CONFIG3L @ 0x300004
  5607                           ;	WDT Period Select bits
  5608                           ;	WDTCPS = WDTCPS_31, Divider ratio 1:65536; software control of WDTPS
  5609                           ;	WDT operating mode
  5610                           ;	WDTE = OFF, WDT Disabled
  5611  300004                     	org	3145732
  5612  300004  9F                 	db	159
  5613                           
  5614                           ;Config register CONFIG3H @ 0x300005
  5615                           ;	WDT Window Select bits
  5616                           ;	WDTCWS = WDTCWS_7, window always open (100%); software control; keyed access not requi
      +                          red
  5617                           ;	WDT input clock selector
  5618                           ;	WDTCCS = SC, Software Control
  5619  300005                     	org	3145733
  5620  300005  FF                 	db	255
  5621                           
  5622                           ;Config register CONFIG4L @ 0x300006
  5623                           ;	Write Protection Block 0
  5624                           ;	WRT0 = OFF, Block 0 (000800-003FFFh) not write-protected
  5625                           ;	Write Protection Block 1
  5626                           ;	WRT1 = OFF, Block 1 (004000-007FFFh) not write-protected
  5627                           ;	Write Protection Block 2
  5628                           ;	WRT2 = OFF, Block 2 (008000-00BFFFh) not write-protected
  5629                           ;	Write Protection Block 3
  5630                           ;	WRT3 = OFF, Block 3 (00C000-00FFFFh) not write-protected
  5631                           ;	Write Protection Block 3
  5632                           ;	WRT4 = OFF, Block 4 (010000-013FFFh) not write-protected
  5633                           ;	Write Protection Block 3
  5634                           ;	WRT5 = OFF, Block 5 (014000-017FFFh) not write-protected
  5635                           ;	Write Protection Block 3
  5636                           ;	WRT6 = OFF, Block 6 (018000-01BFFFh) not write-protected
  5637                           ;	Write Protection Block 3
  5638                           ;	WRT7 = OFF, Block 7 (01C000-01FFFFh) not write-protected
  5639  300006                     	org	3145734
  5640  300006  FF                 	db	255
  5641                           
  5642                           ;Config register CONFIG4H @ 0x300007
  5643                           ;	Configuration Register Write Protection bit
  5644                           ;	WRTC = OFF, Configuration registers (300000-30000Bh) not write-protected
  5645                           ;	Boot Block Write Protection bit
  5646                           ;	WRTB = OFF, Boot Block (000000-0007FFh) not write-protected
  5647                           ;	Data EEPROM Write Protection bit
  5648                           ;	WRTD = OFF, Data EEPROM not write-protected
  5649                           ;	Scanner Enable bit
  5650                           ;	SCANE = ON, Scanner module is available for use, SCANMD bit can control the module
  5651                           ;	Low Voltage Programming Enable bit
  5652                           ;	LVP = ON, Low voltage programming enabled. MCLR/VPP pin function is MCLR. MCLRE config
      +                          uration bit is ignored
  5653  300007                     	org	3145735
  5654  300007  FF                 	db	255
  5655                           
  5656                           ;Config register CONFIG5L @ 0x300008
  5657                           ;	UserNVM Program Memory Code Protection bit
  5658                           ;	CP = OFF, UserNVM code protection disabled
  5659                           ;	DataNVM Memory Code Protection bit
  5660                           ;	CPD = OFF, DataNVM code protection disabled
  5661  300008                     	org	3145736
  5662  300008  FF                 	db	255
  5663                           
  5664                           ;Config register CONFIG5H @ 0x300009
  5665                           ;	unspecified, using default values
  5666  300009                     	org	3145737
  5667  300009  FF                 	db	255
  5668                           
  5669                           ;Config register CONFIG6L @ 0x30000A
  5670                           ;	Table Read Protection Block 0
  5671                           ;	EBTR0 = OFF, Block 0 (000800-003FFFh) not protected from table reads executed in other
      +                           blocks
  5672                           ;	Table Read Protection Block 1
  5673                           ;	EBTR1 = OFF, Block 1 (004000-007FFFh) not protected from table reads executed in other
      +                           blocks
  5674                           ;	Table Read Protection Block 2
  5675                           ;	EBTR2 = OFF, Block 2 (008000-00BFFFh) not protected from table reads executed in other
      +                           blocks
  5676                           ;	Table Read Protection Block 3
  5677                           ;	EBTR3 = OFF, Block 3 (00C000-00FFFFh) not protected from table reads executed in other
      +                           blocks
  5678                           ;	Table Read Protection Block 4
  5679                           ;	EBTR4 = OFF, Block 4 (010000-013FFFh) not protected from table reads executed in other
      +                           blocks
  5680                           ;	Table Read Protection Block 5
  5681                           ;	EBTR5 = OFF, Block 5 (014000-017FFFh) not protected from table reads executed in other
      +                           blocks
  5682                           ;	Table Read Protection Block 6
  5683                           ;	EBTR6 = OFF, Block 6 (018000-01BFFFh) not protected from table reads executed in other
      +                           blocks
  5684                           ;	Table Read Protection Block 7
  5685                           ;	EBTR7 = OFF, Block 7 (01C000-01FFFFh) not protected from table reads executed in other
      +                           blocks
  5686  30000A                     	org	3145738
  5687  30000A  FF                 	db	255
  5688                           
  5689                           ;Config register CONFIG6H @ 0x30000B
  5690                           ;	Boot Block Table Read Protection bit
  5691                           ;	EBTRB = OFF, Boot Block (000000-0007FFh) not protected from table reads executed in ot
      +                          her blocks
  5692  30000B                     	org	3145739
  5693  30000B  FF                 	db	255
  5694                           tosu	equ	0xFFF
  5695                           tosh	equ	0xFFE
  5696                           tosl	equ	0xFFD
  5697                           stkptr	equ	0xFFC
  5698                           pclatu	equ	0xFFB
  5699                           pclath	equ	0xFFA
  5700                           pcl	equ	0xFF9
  5701                           tblptru	equ	0xFF8
  5702                           tblptrh	equ	0xFF7
  5703                           tblptrl	equ	0xFF6
  5704                           tablat	equ	0xFF5
  5705                           prodh	equ	0xFF4
  5706                           prodl	equ	0xFF3
  5707                           indf0	equ	0xFEF
  5708                           postinc0	equ	0xFEE
  5709                           postdec0	equ	0xFED
  5710                           preinc0	equ	0xFEC
  5711                           plusw0	equ	0xFEB
  5712                           fsr0h	equ	0xFEA
  5713                           fsr0l	equ	0xFE9
  5714                           wreg	equ	0xFE8
  5715                           indf1	equ	0xFE7
  5716                           postinc1	equ	0xFE6
  5717                           postdec1	equ	0xFE5
  5718                           preinc1	equ	0xFE4
  5719                           plusw1	equ	0xFE3
  5720                           fsr1h	equ	0xFE2
  5721                           fsr1l	equ	0xFE1
  5722                           bsr	equ	0xFE0
  5723                           indf2	equ	0xFDF
  5724                           postinc2	equ	0xFDE
  5725                           postdec2	equ	0xFDD
  5726                           preinc2	equ	0xFDC
  5727                           plusw2	equ	0xFDB
  5728                           fsr2h	equ	0xFDA
  5729                           fsr2l	equ	0xFD9
  5730                           status	equ	0xFD8

Data Sizes:
    Strings     1
    Constant    112
    Data        4
    BSS         192
    Persistent  0
    Stack       0

Auto Spaces:
    Space          Size  Autos    Used
    COMRAM           95     27      93
    BANK0           160      0     130
    BANK1           256      0       0
    BANK2           256      0       0
    BANK3           256      0       0
    BANK4           256      0       0
    BANK5           256      0       0
    BANK6           256      0       0
    BANK7           256      0       0
    BANK8           256      0       0
    BANK9           256      0       0
    BANK10          256      0       0
    BANK11          256      0       0
    BANK12          256      0       0
    BANK13          234      0       0

Pointer List with Targets:

    i2c_write1ByteRegister@data.data	PTR unsigned char  size(2) Largest target is 0

    i2c_read1ByteRegister@d2.data	PTR unsigned char  size(2) Largest target is 0

    i2c_read2ByteRegister@result.data	PTR unsigned char  size(2) Largest target is 0

    i2c_write2ByteRegister@data.data	PTR unsigned char  size(2) Largest target is 0

    I2C1_Read1ByteRegister@returnValue.data	PTR unsigned char  size(2) Largest target is 0

    I2C1_Read2ByteRegister@returnValue.data	PTR unsigned char  size(2) Largest target is 0

    I2C1_Write1ByteRegister@data.data	PTR unsigned char  size(2) Largest target is 0

    I2C1_Write2ByteRegister@data.data	PTR unsigned char  size(2) Largest target is 0

    I2C1_DO_TX$2713$0	PTR void  size(2) Largest target is 5
		 -> I2C1_ReadDataBlock@bufferBlock(COMRAM[4]), I2C1_Write2ByteRegister@data(COMRAM[2]), I2C1_Write1ByteRegister@data(COMRAM[1]), I2C1_Read2ByteRegister@returnValue(COMRAM[2]), 
		 -> I2C1_Read1ByteRegister@returnValue(COMRAM[1]), i2c_readDataBlock@d(COMRAM[4]), i2c_write2ByteRegister@data(COMRAM[2]), i2c_read2ByteRegister@result(COMRAM[2]), 
		 -> i2c_read1ByteRegister@d2(COMRAM[1]), i2c_write1ByteRegister@data(COMRAM[1]), NULL(NULL[0]), 

    I2C1_DO_RX$2719$0	PTR void  size(2) Largest target is 5
		 -> I2C1_ReadDataBlock@bufferBlock(COMRAM[4]), I2C1_Write2ByteRegister@data(COMRAM[2]), I2C1_Write1ByteRegister@data(COMRAM[1]), I2C1_Read2ByteRegister@returnValue(COMRAM[2]), 
		 -> I2C1_Read1ByteRegister@returnValue(COMRAM[1]), i2c_readDataBlock@d(COMRAM[4]), i2c_write2ByteRegister@data(COMRAM[2]), i2c_read2ByteRegister@result(COMRAM[2]), 
		 -> i2c_read1ByteRegister@d2(COMRAM[1]), i2c_write1ByteRegister@data(COMRAM[1]), NULL(NULL[0]), 

    I2C1_DO_TX_EMPTY$2725$0	PTR void  size(2) Largest target is 5
		 -> I2C1_ReadDataBlock@bufferBlock(COMRAM[4]), I2C1_Write2ByteRegister@data(COMRAM[2]), I2C1_Write1ByteRegister@data(COMRAM[1]), I2C1_Read2ByteRegister@returnValue(COMRAM[2]), 
		 -> I2C1_Read1ByteRegister@returnValue(COMRAM[1]), i2c_readDataBlock@d(COMRAM[4]), i2c_write2ByteRegister@data(COMRAM[2]), i2c_read2ByteRegister@result(COMRAM[2]), 
		 -> i2c_read1ByteRegister@d2(COMRAM[1]), i2c_write1ByteRegister@data(COMRAM[1]), NULL(NULL[0]), 

    I2C1_DO_RX_EMPTY$2731$0	PTR void  size(2) Largest target is 5
		 -> I2C1_ReadDataBlock@bufferBlock(COMRAM[4]), I2C1_Write2ByteRegister@data(COMRAM[2]), I2C1_Write1ByteRegister@data(COMRAM[1]), I2C1_Read2ByteRegister@returnValue(COMRAM[2]), 
		 -> I2C1_Read1ByteRegister@returnValue(COMRAM[1]), i2c_readDataBlock@d(COMRAM[4]), i2c_write2ByteRegister@data(COMRAM[2]), i2c_read2ByteRegister@result(COMRAM[2]), 
		 -> i2c_read1ByteRegister@d2(COMRAM[1]), i2c_write1ByteRegister@data(COMRAM[1]), NULL(NULL[0]), 

    I2C1_DO_TX_EMPTY$2730	PTR void  size(2) Largest target is 5
		 -> I2C1_ReadDataBlock@bufferBlock(COMRAM[4]), I2C1_Write2ByteRegister@data(COMRAM[2]), I2C1_Write1ByteRegister@data(COMRAM[1]), I2C1_Read2ByteRegister@returnValue(COMRAM[2]), 
		 -> I2C1_Read1ByteRegister@returnValue(COMRAM[1]), i2c_readDataBlock@d(COMRAM[4]), i2c_write2ByteRegister@data(COMRAM[2]), i2c_read2ByteRegister@result(COMRAM[2]), 
		 -> i2c_read1ByteRegister@d2(COMRAM[1]), i2c_write1ByteRegister@data(COMRAM[1]), NULL(NULL[0]), 

    I2C1_DO_TX_EMPTY$2725	PTR FTN(PTR void ,)enum E360 size(3) Largest target is 1
		 -> I2C1_CallbackReturnReset(), I2C1_CallbackReturnStop(), Absolute function(), rdBlkRegCompleteHandler@i2c1_master_example$F179(), 
		 -> wr2RegCompleteHandler@i2c1_master_example$F168(), wr1RegCompleteHandler@i2c1_master_example$F162(), rd2RegCompleteHandler@i2c1_master_example$F156(), rd1RegCompleteHandler@i2c1_master_example$F145(), 
		 -> rdBlkRegCompleteHandler(), wr2RegCompleteHandler(), rd2RegCompleteHandler(), rd1RegCompleteHandler(), 
		 -> wr1RegCompleteHandler(), 

    I2C1_DO_RX$2724	PTR void  size(2) Largest target is 5
		 -> I2C1_ReadDataBlock@bufferBlock(COMRAM[4]), I2C1_Write2ByteRegister@data(COMRAM[2]), I2C1_Write1ByteRegister@data(COMRAM[1]), I2C1_Read2ByteRegister@returnValue(COMRAM[2]), 
		 -> I2C1_Read1ByteRegister@returnValue(COMRAM[1]), i2c_readDataBlock@d(COMRAM[4]), i2c_write2ByteRegister@data(COMRAM[2]), i2c_read2ByteRegister@result(COMRAM[2]), 
		 -> i2c_read1ByteRegister@d2(COMRAM[1]), i2c_write1ByteRegister@data(COMRAM[1]), NULL(NULL[0]), 

    I2C1_DO_RX$2719	PTR FTN(PTR void ,)enum E360 size(3) Largest target is 1
		 -> I2C1_CallbackReturnReset(), I2C1_CallbackReturnStop(), Absolute function(), rdBlkRegCompleteHandler@i2c1_master_example$F179(), 
		 -> wr2RegCompleteHandler@i2c1_master_example$F168(), wr1RegCompleteHandler@i2c1_master_example$F162(), rd2RegCompleteHandler@i2c1_master_example$F156(), rd1RegCompleteHandler@i2c1_master_example$F145(), 
		 -> rdBlkRegCompleteHandler(), wr2RegCompleteHandler(), rd2RegCompleteHandler(), rd1RegCompleteHandler(), 
		 -> wr1RegCompleteHandler(), 

    I2C1_DO_TX$2718	PTR void  size(2) Largest target is 5
		 -> I2C1_ReadDataBlock@bufferBlock(COMRAM[4]), I2C1_Write2ByteRegister@data(COMRAM[2]), I2C1_Write1ByteRegister@data(COMRAM[1]), I2C1_Read2ByteRegister@returnValue(COMRAM[2]), 
		 -> I2C1_Read1ByteRegister@returnValue(COMRAM[1]), i2c_readDataBlock@d(COMRAM[4]), i2c_write2ByteRegister@data(COMRAM[2]), i2c_read2ByteRegister@result(COMRAM[2]), 
		 -> i2c_read1ByteRegister@d2(COMRAM[1]), i2c_write1ByteRegister@data(COMRAM[1]), NULL(NULL[0]), 

    I2C1_DO_TX$2713	PTR FTN(PTR void ,)enum E360 size(3) Largest target is 1
		 -> I2C1_CallbackReturnReset(), I2C1_CallbackReturnStop(), Absolute function(), rdBlkRegCompleteHandler@i2c1_master_example$F179(), 
		 -> wr2RegCompleteHandler@i2c1_master_example$F168(), wr1RegCompleteHandler@i2c1_master_example$F162(), rd2RegCompleteHandler@i2c1_master_example$F156(), rd1RegCompleteHandler@i2c1_master_example$F145(), 
		 -> rdBlkRegCompleteHandler(), wr2RegCompleteHandler(), rd2RegCompleteHandler(), rd1RegCompleteHandler(), 
		 -> wr1RegCompleteHandler(), 

    I2C1_MasterFsm$2712	const PTR FTN()enum E14614 size(3) Largest target is 1
		 -> I2C1_DO_ADDRESS_NACK(), I2C1_DO_RESET(), I2C1_DO_RX_NACK_RESTART(), I2C1_DO_RX_NACK_STOP(), 
		 -> I2C1_DO_RX_ACK(), I2C1_DO_SEND_STOP(), I2C1_DO_SEND_RESTART(), I2C1_DO_SEND_RESTART_WRITE(), 
		 -> I2C1_DO_SEND_RESTART_READ(), I2C1_DO_TX_EMPTY(), I2C1_DO_RCEN(), I2C1_DO_RX(), 
		 -> I2C1_DO_TX(), I2C1_DO_SEND_ADR_WRITE(), I2C1_DO_SEND_ADR_READ(), I2C1_DO_IDLE(), 

    I2C1_CallbackReturnStop@funPtr	PTR void  size(2) Largest target is 5
		 -> I2C1_ReadDataBlock@bufferBlock(COMRAM[4]), I2C1_Write2ByteRegister@data(COMRAM[2]), I2C1_Write1ByteRegister@data(COMRAM[1]), I2C1_Read2ByteRegister@returnValue(COMRAM[2]), 
		 -> I2C1_Read1ByteRegister@returnValue(COMRAM[1]), i2c_readDataBlock@d(COMRAM[4]), i2c_write2ByteRegister@data(COMRAM[2]), i2c_read2ByteRegister@result(COMRAM[2]), 
		 -> i2c_read1ByteRegister@d2(COMRAM[1]), i2c_write1ByteRegister@data(COMRAM[1]), NULL(NULL[0]), 

    I2C1_CallbackReturnReset@funPtr	PTR void  size(2) Largest target is 5
		 -> I2C1_ReadDataBlock@bufferBlock(COMRAM[4]), I2C1_Write2ByteRegister@data(COMRAM[2]), I2C1_Write1ByteRegister@data(COMRAM[1]), I2C1_Read2ByteRegister@returnValue(COMRAM[2]), 
		 -> I2C1_Read1ByteRegister@returnValue(COMRAM[1]), i2c_readDataBlock@d(COMRAM[4]), i2c_write2ByteRegister@data(COMRAM[2]), i2c_read2ByteRegister@result(COMRAM[2]), 
		 -> i2c_read1ByteRegister@d2(COMRAM[1]), i2c_write1ByteRegister@data(COMRAM[1]), NULL(NULL[0]), 

    cb$0	PTR void  size(2) Largest target is 5
		 -> I2C1_ReadDataBlock@bufferBlock(COMRAM[4]), I2C1_Write2ByteRegister@data(COMRAM[2]), I2C1_Write1ByteRegister@data(COMRAM[1]), I2C1_Read2ByteRegister@returnValue(COMRAM[2]), 
		 -> I2C1_Read1ByteRegister@returnValue(COMRAM[1]), i2c_readDataBlock@d(COMRAM[4]), i2c_write2ByteRegister@data(COMRAM[2]), i2c_read2ByteRegister@result(COMRAM[2]), 
		 -> i2c_read1ByteRegister@d2(COMRAM[1]), i2c_write1ByteRegister@data(COMRAM[1]), NULL(NULL[0]), 

    Absolute function$0	PTR void  size(2) Largest target is 5
		 -> I2C1_ReadDataBlock@bufferBlock(COMRAM[4]), I2C1_Write2ByteRegister@data(COMRAM[2]), I2C1_Write1ByteRegister@data(COMRAM[1]), I2C1_Read2ByteRegister@returnValue(COMRAM[2]), 
		 -> I2C1_Read1ByteRegister@returnValue(COMRAM[1]), i2c_readDataBlock@d(COMRAM[4]), i2c_write2ByteRegister@data(COMRAM[2]), i2c_read2ByteRegister@result(COMRAM[2]), 
		 -> i2c_read1ByteRegister@d2(COMRAM[1]), i2c_write1ByteRegister@data(COMRAM[1]), NULL(NULL[0]), 

    cb$0	PTR void  size(2) Largest target is 5
		 -> I2C1_ReadDataBlock@bufferBlock(COMRAM[4]), I2C1_Write2ByteRegister@data(COMRAM[2]), I2C1_Write1ByteRegister@data(COMRAM[1]), I2C1_Read2ByteRegister@returnValue(COMRAM[2]), 
		 -> I2C1_Read1ByteRegister@returnValue(COMRAM[1]), i2c_readDataBlock@d(COMRAM[4]), i2c_write2ByteRegister@data(COMRAM[2]), i2c_read2ByteRegister@result(COMRAM[2]), 
		 -> i2c_read1ByteRegister@d2(COMRAM[1]), i2c_write1ByteRegister@data(COMRAM[1]), NULL(NULL[0]), 

    ?___localtime_r.__tm_zone	PTR const unsigned char  size(2) Largest target is 0

    ?_localtime.__tm_zone	PTR const unsigned char  size(2) Largest target is 0

    S493$0$0	PTR void  size(2) Largest target is 5
		 -> I2C1_ReadDataBlock@bufferBlock(COMRAM[4]), I2C1_Write2ByteRegister@data(COMRAM[2]), I2C1_Write1ByteRegister@data(COMRAM[1]), I2C1_Read2ByteRegister@returnValue(COMRAM[2]), 
		 -> I2C1_Read1ByteRegister@returnValue(COMRAM[1]), i2c_readDataBlock@d(COMRAM[4]), i2c_write2ByteRegister@data(COMRAM[2]), i2c_read2ByteRegister@result(COMRAM[2]), 
		 -> i2c_read1ByteRegister@d2(COMRAM[1]), i2c_write1ByteRegister@data(COMRAM[1]), NULL(NULL[0]), 

    __tm_to_secs@tm.__tm_zone	PTR const unsigned char  size(2) Largest target is 0

    mktime@tm.__tm_zone	PTR const unsigned char  size(2) Largest target is 0

    new.__tm_zone	PTR const unsigned char  size(2) Largest target is 0

    sp____tm_to_tzname	PTR const unsigned char  size(2) Largest target is 1
		 -> STR_1(CODE[1]), 

    abbrevs_end	PTR const unsigned char  size(2) Largest target is 0
		 -> NULL(NULL[0]), 

    __tm_to_tzname@tm.__tm_zone	PTR const unsigned char  size(2) Largest target is 0

    abbrevs	PTR const unsigned char  size(2) Largest target is 0
		 -> NULL(NULL[0]), 

    types	PTR const unsigned char  size(2) Largest target is 0
		 -> NULL(NULL[0]), 

    index	PTR const unsigned char  size(2) Largest target is 0
		 -> NULL(NULL[0]), 

    zi	PTR const unsigned char  size(2) Largest target is 0
		 -> NULL(NULL[0]), 

    trans	PTR const unsigned char  size(2) Largest target is 0
		 -> NULL(NULL[0]), 

    old_tz	PTR unsigned char  size(2) Largest target is 32
		 -> old_tz_buf(BANK0[32]), 

    __tzname	PTR unsigned char [2] size(2) Largest target is 7
		 -> dst_name(BANK0[7]), std_name(BANK0[7]), NULL(NULL[0]), 

    __secs_to_tm@tm.__tm_zone	PTR const unsigned char  size(2) Largest target is 0

    sp____localtime_r.__tm_zone	PTR const unsigned char  size(2) Largest target is 0

    __localtime_r@tm.__tm_zone	PTR const unsigned char  size(2) Largest target is 0

    sp__localtime.__tm_zone	PTR const unsigned char  size(2) Largest target is 0

    sp____localtime_r	PTR struct tm size(2) Largest target is 25
		 -> localtime@tm(BANK0[24]), NULL(NULL[0]), 

    F191.__tm_zone	PTR const unsigned char  size(2) Largest target is 0

    tm_t.__tm_zone	PTR const unsigned char  size(2) Largest target is 0

    tm_t.__tm_zone	PTR const unsigned char  size(2) Largest target is 0

    tm_t.__tm_zone	PTR const unsigned char  size(2) Largest target is 0

    S1394tm$__tm_zone	PTR const unsigned char  size(2) Largest target is 0

    rtc6_SetTime@tm_t.__tm_zone	PTR const unsigned char  size(2) Largest target is 0

    sp__localtime	PTR struct tm size(2) Largest target is 25
		 -> localtime@tm(BANK0[24]), NULL(NULL[0]), 

    sp__memset	PTR void  size(2) Largest target is 25
		 -> localtime@tm(BANK0[24]), rtc6_GetTime@tm_t(COMRAM[24]), NULL(NULL[0]), 

    I2C1_SetCallback@ptr	PTR void  size(2) Largest target is 5
		 -> I2C1_ReadDataBlock@bufferBlock(COMRAM[4]), I2C1_Write2ByteRegister@data(COMRAM[2]), I2C1_Write1ByteRegister@data(COMRAM[1]), I2C1_Read2ByteRegister@returnValue(COMRAM[2]), 
		 -> I2C1_Read1ByteRegister@returnValue(COMRAM[1]), i2c_readDataBlock@d(COMRAM[4]), i2c_write2ByteRegister@data(COMRAM[2]), i2c_read2ByteRegister@result(COMRAM[2]), 
		 -> i2c_read1ByteRegister@d2(COMRAM[1]), i2c_write1ByteRegister@data(COMRAM[1]), NULL(NULL[0]), 

    I2C1_SetCallback@cb	PTR FTN(PTR void ,)enum E360 size(3) Largest target is 1
		 -> Absolute function(), rdBlkRegCompleteHandler@i2c1_master_example$F179(), wr2RegCompleteHandler@i2c1_master_example$F168(), wr1RegCompleteHandler@i2c1_master_example$F162(), 
		 -> rd2RegCompleteHandler@i2c1_master_example$F156(), rd1RegCompleteHandler@i2c1_master_example$F145(), rdBlkRegCompleteHandler(), wr2RegCompleteHandler(), 
		 -> rd2RegCompleteHandler(), rd1RegCompleteHandler(), wr1RegCompleteHandler(), 

    I2C1_SetAddressNackCallback@ptr	PTR void  size(2) Largest target is 0
		 -> NULL(NULL[0]), 

    I2C1_SetAddressNackCallback@cb	PTR FTN(PTR void ,)enum E360 size(3) Largest target is 1
		 -> Absolute function(), 

    I2C1_SetDataCompleteCallback@ptr	PTR void  size(2) Largest target is 5
		 -> I2C1_ReadDataBlock@bufferBlock(COMRAM[4]), I2C1_Write2ByteRegister@data(COMRAM[2]), I2C1_Write1ByteRegister@data(COMRAM[1]), I2C1_Read2ByteRegister@returnValue(COMRAM[2]), 
		 -> I2C1_Read1ByteRegister@returnValue(COMRAM[1]), i2c_readDataBlock@d(COMRAM[4]), i2c_write2ByteRegister@data(COMRAM[2]), i2c_read2ByteRegister@result(COMRAM[2]), 
		 -> i2c_read1ByteRegister@d2(COMRAM[1]), i2c_write1ByteRegister@data(COMRAM[1]), NULL(NULL[0]), 

    I2C1_SetDataCompleteCallback@cb	PTR FTN(PTR void ,)enum E360 size(3) Largest target is 1
		 -> Absolute function(), rdBlkRegCompleteHandler@i2c1_master_example$F179(), wr2RegCompleteHandler@i2c1_master_example$F168(), wr1RegCompleteHandler@i2c1_master_example$F162(), 
		 -> rd2RegCompleteHandler@i2c1_master_example$F156(), rd1RegCompleteHandler@i2c1_master_example$F145(), rdBlkRegCompleteHandler(), wr2RegCompleteHandler(), 
		 -> rd2RegCompleteHandler(), rd1RegCompleteHandler(), wr1RegCompleteHandler(), 

    I2C1_SetBuffer@buffer	PTR void  size(2) Largest target is 5
		 -> I2C1_ReadDataBlock@reg(COMRAM[1]), I2C1_ReadDataBlock@bufferBlock(COMRAM[4]), I2C1_Write2ByteRegister@reg(COMRAM[1]), I2C1_Write2ByteRegister@data(COMRAM[2]), 
		 -> I2C1_Write1ByteRegister@reg(COMRAM[1]), I2C1_Write1ByteRegister@data(COMRAM[1]), I2C1_Read2ByteRegister@reg(COMRAM[1]), I2C1_Read2ByteRegister@returnValue(COMRAM[2]), 
		 -> I2C1_Read1ByteRegister@reg(COMRAM[1]), I2C1_Read1ByteRegister@returnValue(COMRAM[1]), i2c_readDataBlock@reg(COMRAM[1]), i2c_readDataBlock@d(COMRAM[4]), 
		 -> i2c_write2ByteRegister@reg(COMRAM[1]), i2c_write2ByteRegister@data(COMRAM[2]), i2c_read2ByteRegister@reg(COMRAM[1]), i2c_read2ByteRegister@result(COMRAM[2]), 
		 -> i2c_read1ByteRegister@reg(COMRAM[1]), i2c_read1ByteRegister@d2(COMRAM[1]), i2c_write1ByteRegister@reg(COMRAM[1]), i2c_write1ByteRegister@data(COMRAM[1]), 
		 -> NULL(NULL[0]), 

    S493$data_ptr	PTR unsigned char  size(2) Largest target is 5
		 -> I2C1_ReadDataBlock@reg(COMRAM[1]), I2C1_ReadDataBlock@bufferBlock(COMRAM[4]), I2C1_Write2ByteRegister@reg(COMRAM[1]), I2C1_Write2ByteRegister@data(COMRAM[2]), 
		 -> I2C1_Write1ByteRegister@reg(COMRAM[1]), I2C1_Write1ByteRegister@data(COMRAM[1]), I2C1_Read2ByteRegister@reg(COMRAM[1]), I2C1_Read2ByteRegister@returnValue(COMRAM[2]), 
		 -> I2C1_Read1ByteRegister@reg(COMRAM[1]), I2C1_Read1ByteRegister@returnValue(COMRAM[1]), i2c_readDataBlock@reg(COMRAM[1]), i2c_readDataBlock@d(COMRAM[4]), 
		 -> i2c_write2ByteRegister@reg(COMRAM[1]), i2c_write2ByteRegister@data(COMRAM[2]), i2c_read2ByteRegister@reg(COMRAM[1]), i2c_read2ByteRegister@result(COMRAM[2]), 
		 -> i2c_read1ByteRegister@reg(COMRAM[1]), i2c_read1ByteRegister@d2(COMRAM[1]), i2c_write1ByteRegister@reg(COMRAM[1]), i2c_write1ByteRegister@data(COMRAM[1]), 
		 -> NULL(NULL[0]), 

    I2C1_Status.data_ptr	PTR unsigned char  size(2) Largest target is 5
		 -> I2C1_ReadDataBlock@reg(COMRAM[1]), I2C1_ReadDataBlock@bufferBlock(COMRAM[4]), I2C1_Write2ByteRegister@reg(COMRAM[1]), I2C1_Write2ByteRegister@data(COMRAM[2]), 
		 -> I2C1_Write1ByteRegister@reg(COMRAM[1]), I2C1_Write1ByteRegister@data(COMRAM[1]), I2C1_Read2ByteRegister@reg(COMRAM[1]), I2C1_Read2ByteRegister@returnValue(COMRAM[2]), 
		 -> I2C1_Read1ByteRegister@reg(COMRAM[1]), I2C1_Read1ByteRegister@returnValue(COMRAM[1]), i2c_readDataBlock@reg(COMRAM[1]), i2c_readDataBlock@d(COMRAM[4]), 
		 -> i2c_write2ByteRegister@reg(COMRAM[1]), i2c_write2ByteRegister@data(COMRAM[2]), i2c_read2ByteRegister@reg(COMRAM[1]), i2c_read2ByteRegister@result(COMRAM[2]), 
		 -> i2c_read1ByteRegister@reg(COMRAM[1]), i2c_read1ByteRegister@d2(COMRAM[1]), i2c_write1ByteRegister@reg(COMRAM[1]), i2c_write1ByteRegister@data(COMRAM[1]), 
		 -> NULL(NULL[0]), 

    S493$callbackPayload	PTR void [6] size(2) Largest target is 5
		 -> I2C1_ReadDataBlock@bufferBlock(COMRAM[4]), I2C1_Write2ByteRegister@data(COMRAM[2]), I2C1_Write1ByteRegister@data(COMRAM[1]), I2C1_Read2ByteRegister@returnValue(COMRAM[2]), 
		 -> I2C1_Read1ByteRegister@returnValue(COMRAM[1]), i2c_readDataBlock@d(COMRAM[4]), i2c_write2ByteRegister@data(COMRAM[2]), i2c_read2ByteRegister@result(COMRAM[2]), 
		 -> i2c_read1ByteRegister@d2(COMRAM[1]), i2c_write1ByteRegister@data(COMRAM[1]), NULL(NULL[0]), 

    I2C1_Status.callbackPayload	PTR void [6] size(2) Largest target is 5
		 -> I2C1_ReadDataBlock@bufferBlock(COMRAM[4]), I2C1_Write2ByteRegister@data(COMRAM[2]), I2C1_Write1ByteRegister@data(COMRAM[1]), I2C1_Read2ByteRegister@returnValue(COMRAM[2]), 
		 -> I2C1_Read1ByteRegister@returnValue(COMRAM[1]), i2c_readDataBlock@d(COMRAM[4]), i2c_write2ByteRegister@data(COMRAM[2]), i2c_read2ByteRegister@result(COMRAM[2]), 
		 -> i2c_read1ByteRegister@d2(COMRAM[1]), i2c_write1ByteRegister@data(COMRAM[1]), NULL(NULL[0]), 

    S493$callbackTable	PTR FTN(PTR void ,)enum E360[6] size(3) Largest target is 1
		 -> I2C1_CallbackReturnReset(), I2C1_CallbackReturnStop(), Absolute function(), rdBlkRegCompleteHandler@i2c1_master_example$F179(), 
		 -> wr2RegCompleteHandler@i2c1_master_example$F168(), wr1RegCompleteHandler@i2c1_master_example$F162(), rd2RegCompleteHandler@i2c1_master_example$F156(), rd1RegCompleteHandler@i2c1_master_example$F145(), 
		 -> rdBlkRegCompleteHandler(), wr2RegCompleteHandler(), rd2RegCompleteHandler(), rd1RegCompleteHandler(), 
		 -> wr1RegCompleteHandler(), 

    I2C1_Status.callbackTable	PTR FTN(PTR void ,)enum E360[6] size(3) Largest target is 1
		 -> I2C1_CallbackReturnReset(), I2C1_CallbackReturnStop(), Absolute function(), rdBlkRegCompleteHandler@i2c1_master_example$F179(), 
		 -> wr2RegCompleteHandler@i2c1_master_example$F168(), wr1RegCompleteHandler@i2c1_master_example$F162(), rd2RegCompleteHandler@i2c1_master_example$F156(), rd1RegCompleteHandler@i2c1_master_example$F145(), 
		 -> rdBlkRegCompleteHandler(), wr2RegCompleteHandler(), rd2RegCompleteHandler(), rd1RegCompleteHandler(), 
		 -> wr1RegCompleteHandler(), 

    i2c1_fsmStateTable	const PTR FTN()enum E14614[16] size(3) Largest target is 1
		 -> I2C1_DO_ADDRESS_NACK(), I2C1_DO_RESET(), I2C1_DO_RX_NACK_RESTART(), I2C1_DO_RX_NACK_STOP(), 
		 -> I2C1_DO_RX_ACK(), I2C1_DO_SEND_STOP(), I2C1_DO_SEND_RESTART(), I2C1_DO_SEND_RESTART_WRITE(), 
		 -> I2C1_DO_SEND_RESTART_READ(), I2C1_DO_TX_EMPTY(), I2C1_DO_RCEN(), I2C1_DO_RX(), 
		 -> I2C1_DO_TX(), I2C1_DO_SEND_ADR_WRITE(), I2C1_DO_SEND_ADR_READ(), I2C1_DO_IDLE(), 

    rdBlkRegCompleteHandler@i2c1_master_example$F179@ptr.data	PTR unsigned char  size(2) Largest target is 0

    rdBlkRegCompleteHandler@i2c1_master_example$F179@ptr	PTR void  size(2) Largest target is 5
		 -> I2C1_ReadDataBlock@bufferBlock(COMRAM[4]), I2C1_Write2ByteRegister@data(COMRAM[2]), I2C1_Write1ByteRegister@data(COMRAM[1]), I2C1_Read2ByteRegister@returnValue(COMRAM[2]), 
		 -> I2C1_Read1ByteRegister@returnValue(COMRAM[1]), i2c_readDataBlock@d(COMRAM[4]), i2c_write2ByteRegister@data(COMRAM[2]), i2c_read2ByteRegister@result(COMRAM[2]), 
		 -> i2c_read1ByteRegister@d2(COMRAM[1]), i2c_write1ByteRegister@data(COMRAM[1]), NULL(NULL[0]), 

    wr2RegCompleteHandler@i2c1_master_example$F168@ptr	PTR void  size(2) Largest target is 5
		 -> I2C1_ReadDataBlock@bufferBlock(COMRAM[4]), I2C1_Write2ByteRegister@data(COMRAM[2]), I2C1_Write1ByteRegister@data(COMRAM[1]), I2C1_Read2ByteRegister@returnValue(COMRAM[2]), 
		 -> I2C1_Read1ByteRegister@returnValue(COMRAM[1]), i2c_readDataBlock@d(COMRAM[4]), i2c_write2ByteRegister@data(COMRAM[2]), i2c_read2ByteRegister@result(COMRAM[2]), 
		 -> i2c_read1ByteRegister@d2(COMRAM[1]), i2c_write1ByteRegister@data(COMRAM[1]), NULL(NULL[0]), 

    wr1RegCompleteHandler@i2c1_master_example$F162@ptr	PTR void  size(2) Largest target is 5
		 -> I2C1_ReadDataBlock@bufferBlock(COMRAM[4]), I2C1_Write2ByteRegister@data(COMRAM[2]), I2C1_Write1ByteRegister@data(COMRAM[1]), I2C1_Read2ByteRegister@returnValue(COMRAM[2]), 
		 -> I2C1_Read1ByteRegister@returnValue(COMRAM[1]), i2c_readDataBlock@d(COMRAM[4]), i2c_write2ByteRegister@data(COMRAM[2]), i2c_read2ByteRegister@result(COMRAM[2]), 
		 -> i2c_read1ByteRegister@d2(COMRAM[1]), i2c_write1ByteRegister@data(COMRAM[1]), NULL(NULL[0]), 

    rd2RegCompleteHandler@i2c1_master_example$F156@ptr	PTR void  size(2) Largest target is 5
		 -> I2C1_ReadDataBlock@bufferBlock(COMRAM[4]), I2C1_Write2ByteRegister@data(COMRAM[2]), I2C1_Write1ByteRegister@data(COMRAM[1]), I2C1_Read2ByteRegister@returnValue(COMRAM[2]), 
		 -> I2C1_Read1ByteRegister@returnValue(COMRAM[1]), i2c_readDataBlock@d(COMRAM[4]), i2c_write2ByteRegister@data(COMRAM[2]), i2c_read2ByteRegister@result(COMRAM[2]), 
		 -> i2c_read1ByteRegister@d2(COMRAM[1]), i2c_write1ByteRegister@data(COMRAM[1]), NULL(NULL[0]), 

    rd1RegCompleteHandler@i2c1_master_example$F145@ptr	PTR void  size(2) Largest target is 5
		 -> I2C1_ReadDataBlock@bufferBlock(COMRAM[4]), I2C1_Write2ByteRegister@data(COMRAM[2]), I2C1_Write1ByteRegister@data(COMRAM[1]), I2C1_Read2ByteRegister@returnValue(COMRAM[2]), 
		 -> I2C1_Read1ByteRegister@returnValue(COMRAM[1]), i2c_readDataBlock@d(COMRAM[4]), i2c_write2ByteRegister@data(COMRAM[2]), i2c_read2ByteRegister@result(COMRAM[2]), 
		 -> i2c_read1ByteRegister@d2(COMRAM[1]), i2c_write1ByteRegister@data(COMRAM[1]), NULL(NULL[0]), 

    bufferBlock.data	PTR unsigned char  size(2) Largest target is 0

    d.data	PTR unsigned char  size(2) Largest target is 0

    S76$data	PTR unsigned char  size(2) Largest target is 0

    rdBlkRegCompleteHandler@p.data	PTR unsigned char  size(2) Largest target is 0

    rdBlkRegCompleteHandler@p	PTR void  size(2) Largest target is 5
		 -> I2C1_ReadDataBlock@bufferBlock(COMRAM[4]), I2C1_Write2ByteRegister@data(COMRAM[2]), I2C1_Write1ByteRegister@data(COMRAM[1]), I2C1_Read2ByteRegister@returnValue(COMRAM[2]), 
		 -> I2C1_Read1ByteRegister@returnValue(COMRAM[1]), i2c_readDataBlock@d(COMRAM[4]), i2c_write2ByteRegister@data(COMRAM[2]), i2c_read2ByteRegister@result(COMRAM[2]), 
		 -> i2c_read1ByteRegister@d2(COMRAM[1]), i2c_write1ByteRegister@data(COMRAM[1]), NULL(NULL[0]), 

    wr2RegCompleteHandler@p	PTR void  size(2) Largest target is 5
		 -> I2C1_ReadDataBlock@bufferBlock(COMRAM[4]), I2C1_Write2ByteRegister@data(COMRAM[2]), I2C1_Write1ByteRegister@data(COMRAM[1]), I2C1_Read2ByteRegister@returnValue(COMRAM[2]), 
		 -> I2C1_Read1ByteRegister@returnValue(COMRAM[1]), i2c_readDataBlock@d(COMRAM[4]), i2c_write2ByteRegister@data(COMRAM[2]), i2c_read2ByteRegister@result(COMRAM[2]), 
		 -> i2c_read1ByteRegister@d2(COMRAM[1]), i2c_write1ByteRegister@data(COMRAM[1]), NULL(NULL[0]), 

    rd2RegCompleteHandler@p	PTR void  size(2) Largest target is 5
		 -> I2C1_ReadDataBlock@bufferBlock(COMRAM[4]), I2C1_Write2ByteRegister@data(COMRAM[2]), I2C1_Write1ByteRegister@data(COMRAM[1]), I2C1_Read2ByteRegister@returnValue(COMRAM[2]), 
		 -> I2C1_Read1ByteRegister@returnValue(COMRAM[1]), i2c_readDataBlock@d(COMRAM[4]), i2c_write2ByteRegister@data(COMRAM[2]), i2c_read2ByteRegister@result(COMRAM[2]), 
		 -> i2c_read1ByteRegister@d2(COMRAM[1]), i2c_write1ByteRegister@data(COMRAM[1]), NULL(NULL[0]), 

    rd1RegCompleteHandler@p	PTR void  size(2) Largest target is 5
		 -> I2C1_ReadDataBlock@bufferBlock(COMRAM[4]), I2C1_Write2ByteRegister@data(COMRAM[2]), I2C1_Write1ByteRegister@data(COMRAM[1]), I2C1_Read2ByteRegister@returnValue(COMRAM[2]), 
		 -> I2C1_Read1ByteRegister@returnValue(COMRAM[1]), i2c_readDataBlock@d(COMRAM[4]), i2c_write2ByteRegister@data(COMRAM[2]), i2c_read2ByteRegister@result(COMRAM[2]), 
		 -> i2c_read1ByteRegister@d2(COMRAM[1]), i2c_write1ByteRegister@data(COMRAM[1]), NULL(NULL[0]), 

    wr1RegCompleteHandler@p	PTR void  size(2) Largest target is 5
		 -> I2C1_ReadDataBlock@bufferBlock(COMRAM[4]), I2C1_Write2ByteRegister@data(COMRAM[2]), I2C1_Write1ByteRegister@data(COMRAM[1]), I2C1_Read2ByteRegister@returnValue(COMRAM[2]), 
		 -> I2C1_Read1ByteRegister@returnValue(COMRAM[1]), i2c_readDataBlock@d(COMRAM[4]), i2c_write2ByteRegister@data(COMRAM[2]), i2c_read2ByteRegister@result(COMRAM[2]), 
		 -> i2c_read1ByteRegister@d2(COMRAM[1]), i2c_write1ByteRegister@data(COMRAM[1]), NULL(NULL[0]), 


Critical Paths under _main in COMRAM

    _SYSTEM_Initialize->_rtc6_Initialize
    _rtc6_Initialize->_rtcc_read
    _rtcc_write->_i2c_write1ByteRegister
    _rtcc_read->_i2c_read1ByteRegister
    _I2C1_SetAddressNackCallback->_I2C1_SetCallback
    _I2C1_MasterWrite->_I2C1_MasterOperation
    _I2C1_MasterFsm->_I2C1_DO_ADDRESS_NACK
    _I2C1_MasterFsm->_I2C1_DO_RX
    _I2C1_MasterFsm->_I2C1_DO_TX
    _I2C1_MasterFsm->_I2C1_DO_TX_EMPTY
    _I2C1_DO_TX_EMPTY->_I2C1_CallbackReturnReset
    _I2C1_DO_TX_EMPTY->_I2C1_CallbackReturnStop
    _I2C1_DO_TX_EMPTY->_rd1RegCompleteHandler
    _I2C1_DO_TX_EMPTY->_rd1RegCompleteHandler@i2c1_master_example$F145
    _I2C1_DO_TX_EMPTY->_rd2RegCompleteHandler
    _I2C1_DO_TX_EMPTY->_rd2RegCompleteHandler@i2c1_master_example$F156
    _I2C1_DO_TX_EMPTY->_rdBlkRegCompleteHandler
    _I2C1_DO_TX_EMPTY->_rdBlkRegCompleteHandler@i2c1_master_example$F179
    _I2C1_DO_TX_EMPTY->_wr1RegCompleteHandler
    _I2C1_DO_TX_EMPTY->_wr1RegCompleteHandler@i2c1_master_example$F162
    _I2C1_DO_TX_EMPTY->_wr2RegCompleteHandler
    _I2C1_DO_TX_EMPTY->_wr2RegCompleteHandler@i2c1_master_example$F168
    _I2C1_DO_TX->_I2C1_CallbackReturnReset
    _I2C1_DO_TX->_I2C1_CallbackReturnStop
    _I2C1_DO_TX->_rd1RegCompleteHandler
    _I2C1_DO_TX->_rd1RegCompleteHandler@i2c1_master_example$F145
    _I2C1_DO_TX->_rd2RegCompleteHandler
    _I2C1_DO_TX->_rd2RegCompleteHandler@i2c1_master_example$F156
    _I2C1_DO_TX->_rdBlkRegCompleteHandler
    _I2C1_DO_TX->_rdBlkRegCompleteHandler@i2c1_master_example$F179
    _I2C1_DO_TX->_wr1RegCompleteHandler
    _I2C1_DO_TX->_wr1RegCompleteHandler@i2c1_master_example$F162
    _I2C1_DO_TX->_wr2RegCompleteHandler
    _I2C1_DO_TX->_wr2RegCompleteHandler@i2c1_master_example$F168
    _I2C1_DO_SEND_ADR_WRITE->_I2C1_MasterSendTxData
    _I2C1_DO_RX->_I2C1_CallbackReturnReset
    _I2C1_DO_RX->_I2C1_CallbackReturnStop
    _I2C1_DO_RX->_rd1RegCompleteHandler
    _I2C1_DO_RX->_rd1RegCompleteHandler@i2c1_master_example$F145
    _I2C1_DO_RX->_rd2RegCompleteHandler
    _I2C1_DO_RX->_rd2RegCompleteHandler@i2c1_master_example$F156
    _I2C1_DO_RX->_rdBlkRegCompleteHandler
    _I2C1_DO_RX->_rdBlkRegCompleteHandler@i2c1_master_example$F179
    _I2C1_DO_RX->_wr1RegCompleteHandler
    _I2C1_DO_RX->_wr1RegCompleteHandler@i2c1_master_example$F162
    _I2C1_DO_RX->_wr2RegCompleteHandler
    _I2C1_DO_RX->_wr2RegCompleteHandler@i2c1_master_example$F168
    _I2C1_DO_ADDRESS_NACK->_I2C1_CallbackReturnReset
    _I2C1_DO_ADDRESS_NACK->_I2C1_CallbackReturnStop
    _I2C1_DO_ADDRESS_NACK->_rd1RegCompleteHandler
    _I2C1_DO_ADDRESS_NACK->_rd1RegCompleteHandler@i2c1_master_example$F145
    _I2C1_DO_ADDRESS_NACK->_rd2RegCompleteHandler
    _I2C1_DO_ADDRESS_NACK->_rd2RegCompleteHandler@i2c1_master_example$F156
    _I2C1_DO_ADDRESS_NACK->_rdBlkRegCompleteHandler
    _I2C1_DO_ADDRESS_NACK->_rdBlkRegCompleteHandler@i2c1_master_example$F179
    _I2C1_DO_ADDRESS_NACK->_wr1RegCompleteHandler
    _I2C1_DO_ADDRESS_NACK->_wr1RegCompleteHandler@i2c1_master_example$F162
    _I2C1_DO_ADDRESS_NACK->_wr2RegCompleteHandler
    _I2C1_DO_ADDRESS_NACK->_wr2RegCompleteHandler@i2c1_master_example$F168
    _wr2RegCompleteHandler@i2c1_master_example$F168->_I2C1_SetDataCompleteCallback
    _wr2RegCompleteHandler->_I2C1_SetDataCompleteCallback
    _wr1RegCompleteHandler@i2c1_master_example$F162->_I2C1_SetDataCompleteCallback
    _wr1RegCompleteHandler->_I2C1_SetDataCompleteCallback
    _rdBlkRegCompleteHandler@i2c1_master_example$F179->_I2C1_SetDataCompleteCallback
    _rdBlkRegCompleteHandler->_I2C1_SetDataCompleteCallback
    _rd2RegCompleteHandler@i2c1_master_example$F156->_I2C1_SetDataCompleteCallback
    _rd2RegCompleteHandler->_I2C1_SetDataCompleteCallback
    _rd1RegCompleteHandler@i2c1_master_example$F145->_I2C1_SetDataCompleteCallback
    _rd1RegCompleteHandler->_I2C1_SetDataCompleteCallback
    _I2C1_SetDataCompleteCallback->_I2C1_SetCallback

Critical Paths under _main in BANK0

    None.

Critical Paths under _main in BANK1

    None.

Critical Paths under _main in BANK2

    None.

Critical Paths under _main in BANK3

    None.

Critical Paths under _main in BANK4

    None.

Critical Paths under _main in BANK5

    None.

Critical Paths under _main in BANK6

    None.

Critical Paths under _main in BANK7

    None.

Critical Paths under _main in BANK8

    None.

Critical Paths under _main in BANK9

    None.

Critical Paths under _main in BANK10

    None.

Critical Paths under _main in BANK11

    None.

Critical Paths under _main in BANK12

    None.

Critical Paths under _main in BANK13

    None.

Call Graph Tables:

 ---------------------------------------------------------------------------------
 (Depth) Function   	        Calls       Base Space   Used Autos Params    Refs
 ---------------------------------------------------------------------------------
 (0) _main                                                 1     1      0  643431
                                             26 COMRAM     1     1      0
                  _SYSTEM_Initialize
            _TMR0_HasOverflowOccured
                    _TMR0_StartTimer
                     _TMR0_StopTimer
 ---------------------------------------------------------------------------------
 (1) _TMR0_StopTimer                                       0     0      0       0
 ---------------------------------------------------------------------------------
 (1) _TMR0_StartTimer                                      0     0      0       0
 ---------------------------------------------------------------------------------
 (1) _TMR0_HasOverflowOccured                              0     0      0       0
 ---------------------------------------------------------------------------------
 (1) _SYSTEM_Initialize                                    0     0      0  643431
                    _I2C1_Initialize
              _OSCILLATOR_Initialize
             _PIN_MANAGER_Initialize
                     _PMD_Initialize
                    _TMR0_Initialize
                    _rtc6_Initialize
 ---------------------------------------------------------------------------------
 (2) _rtc6_Initialize                                      2     2      0  643431
                                             24 COMRAM     2     2      0
                          _rtcc_read
                         _rtcc_write
 ---------------------------------------------------------------------------------
 (3) _rtcc_write                                           3     2      1  322618
                                             20 COMRAM     3     2      1
             _i2c_write1ByteRegister
 ---------------------------------------------------------------------------------
 (4) _i2c_write1ByteRegister                               3     1      2  321054
                                             17 COMRAM     3     1      2
                         _I2C1_Close
                   _I2C1_MasterWrite
                          _I2C1_Open
        _I2C1_SetAddressNackCallback
                     _I2C1_SetBuffer
       _I2C1_SetDataCompleteCallback
 ---------------------------------------------------------------------------------
 (3) _rtcc_read                                            1     1      0  320788
                                             23 COMRAM     1     1      0
              _i2c_read1ByteRegister
 ---------------------------------------------------------------------------------
 (4) _i2c_read1ByteRegister                                6     5      1  320766
                                             17 COMRAM     6     5      1
                         _I2C1_Close
                   _I2C1_MasterWrite
                          _I2C1_Open
        _I2C1_SetAddressNackCallback
                     _I2C1_SetBuffer
       _I2C1_SetDataCompleteCallback
 ---------------------------------------------------------------------------------
 (5) _I2C1_SetAddressNackCallback                          5     0      5    2782
                                              6 COMRAM     5     0      5
                   _I2C1_SetCallback
 ---------------------------------------------------------------------------------
 (5) _I2C1_Open                                            2     2      0      46
                                              0 COMRAM     2     2      0
                _I2C1_MasterClearIrq
                    _I2C1_MasterOpen
 ---------------------------------------------------------------------------------
 (6) _I2C1_MasterOpen                                      0     0      0       0
 ---------------------------------------------------------------------------------
 (5) _I2C1_MasterWrite                                     0     0      0  309828
               _I2C1_MasterOperation
 ---------------------------------------------------------------------------------
 (6) _I2C1_MasterOperation                                 2     2      0  309828
                                             15 COMRAM     2     2      0
                   _I2C1_MasterStart
                        _I2C1_Poller
 ---------------------------------------------------------------------------------
 (7) _I2C1_Poller                                          0     0      0  309782
                     _I2C1_MasterFsm
            _I2C1_MasterWaitForEvent
 ---------------------------------------------------------------------------------
 (8) _I2C1_MasterWaitForEvent                              0     0      0       0
 ---------------------------------------------------------------------------------
 (8) _I2C1_MasterFsm                                       0     0      0  309782
               _I2C1_DO_ADDRESS_NACK *
                       _I2C1_DO_IDLE *
                       _I2C1_DO_RCEN *
                      _I2C1_DO_RESET *
                         _I2C1_DO_RX *
                     _I2C1_DO_RX_ACK *
            _I2C1_DO_RX_NACK_RESTART *
               _I2C1_DO_RX_NACK_STOP *
              _I2C1_DO_SEND_ADR_READ *
             _I2C1_DO_SEND_ADR_WRITE *
               _I2C1_DO_SEND_RESTART *
          _I2C1_DO_SEND_RESTART_READ *
         _I2C1_DO_SEND_RESTART_WRITE *
                  _I2C1_DO_SEND_STOP *
                         _I2C1_DO_TX *
                   _I2C1_DO_TX_EMPTY *
                _I2C1_MasterClearIrq
                  _I2C1_MasterIsNack
 ---------------------------------------------------------------------------------
 (9) _I2C1_DO_TX_EMPTY                                     2     2      0   77429
                                             13 COMRAM     2     2      0
                   Absolute function *
           _I2C1_CallbackReturnReset *
            _I2C1_CallbackReturnStop *
               _I2C1_DO_SEND_RESTART
                  _I2C1_DO_SEND_STOP
                  _I2C1_MasterSetIrq
              _rd1RegCompleteHandler *
_rd1RegCompleteHandler@i2c1_master_e *
              _rd2RegCompleteHandler *
_rd2RegCompleteHandler@i2c1_master_e *
            _rdBlkRegCompleteHandler *
_rdBlkRegCompleteHandler@i2c1_master *
              _wr1RegCompleteHandler *
_wr1RegCompleteHandler@i2c1_master_e *
              _wr2RegCompleteHandler *
_wr2RegCompleteHandler@i2c1_master_e *
 ---------------------------------------------------------------------------------
 (10) _I2C1_MasterSetIrq                                   0     0      0       0
 ---------------------------------------------------------------------------------
 (9) _I2C1_DO_TX                                           2     2      0   77451
                                             13 COMRAM     2     2      0
                   Absolute function *
           _I2C1_CallbackReturnReset *
            _I2C1_CallbackReturnStop *
          _I2C1_DO_SEND_RESTART_READ
         _I2C1_DO_SEND_RESTART_WRITE
                  _I2C1_DO_SEND_STOP
                  _I2C1_MasterIsNack
              _I2C1_MasterSendTxData
              _rd1RegCompleteHandler *
_rd1RegCompleteHandler@i2c1_master_e *
              _rd2RegCompleteHandler *
_rd2RegCompleteHandler@i2c1_master_e *
            _rdBlkRegCompleteHandler *
_rdBlkRegCompleteHandler@i2c1_master *
              _wr1RegCompleteHandler *
_wr1RegCompleteHandler@i2c1_master_e *
              _wr2RegCompleteHandler *
_wr2RegCompleteHandler@i2c1_master_e *
 ---------------------------------------------------------------------------------
 (9) _I2C1_MasterIsNack                                    0     0      0       0
 ---------------------------------------------------------------------------------
 (10) _I2C1_DO_SEND_RESTART_WRITE                          0     0      0       0
           _I2C1_MasterEnableRestart
 ---------------------------------------------------------------------------------
 (10) _I2C1_DO_SEND_RESTART_READ                           0     0      0       0
           _I2C1_MasterEnableRestart
 ---------------------------------------------------------------------------------
 (9) _I2C1_DO_SEND_ADR_WRITE                               0     0      0      22
              _I2C1_MasterSendTxData
 ---------------------------------------------------------------------------------
 (9) _I2C1_DO_SEND_ADR_READ                                0     0      0      22
              _I2C1_MasterSendTxData
 ---------------------------------------------------------------------------------
 (10) _I2C1_MasterSendTxData                               1     1      0      22
                                              0 COMRAM     1     1      0
 ---------------------------------------------------------------------------------
 (9) _I2C1_DO_RX_ACK                                       0     0      0       0
                 _I2C1_MasterSendAck
 ---------------------------------------------------------------------------------
 (9) _I2C1_DO_RX                                           2     2      0   77429
                                             13 COMRAM     2     2      0
                   Absolute function *
           _I2C1_CallbackReturnReset *
            _I2C1_CallbackReturnStop *
            _I2C1_DO_RX_NACK_RESTART
               _I2C1_DO_RX_NACK_STOP
               _I2C1_MasterGetRxData
                 _I2C1_MasterSendAck
              _rd1RegCompleteHandler *
_rd1RegCompleteHandler@i2c1_master_e *
              _rd2RegCompleteHandler *
_rd2RegCompleteHandler@i2c1_master_e *
            _rdBlkRegCompleteHandler *
_rdBlkRegCompleteHandler@i2c1_master *
              _wr1RegCompleteHandler *
_wr1RegCompleteHandler@i2c1_master_e *
              _wr2RegCompleteHandler *
_wr2RegCompleteHandler@i2c1_master_e *
 ---------------------------------------------------------------------------------
 (10) _I2C1_MasterSendAck                                  0     0      0       0
 ---------------------------------------------------------------------------------
 (10) _I2C1_MasterGetRxData                                0     0      0       0
 ---------------------------------------------------------------------------------
 (9) _I2C1_DO_RX_NACK_STOP                                 0     0      0       0
                _I2C1_MasterSendNack
 ---------------------------------------------------------------------------------
 (9) _I2C1_DO_RX_NACK_RESTART                              0     0      0       0
                _I2C1_MasterSendNack
 ---------------------------------------------------------------------------------
 (10) _I2C1_MasterSendNack                                 0     0      0       0
 ---------------------------------------------------------------------------------
 (9) _I2C1_DO_RESET                                        0     0      0       0
 ---------------------------------------------------------------------------------
 (9) _I2C1_DO_RCEN                                         0     0      0       0
                 _I2C1_MasterStartRx
 ---------------------------------------------------------------------------------
 (10) _I2C1_MasterStartRx                                  0     0      0       0
 ---------------------------------------------------------------------------------
 (9) _I2C1_DO_IDLE                                         0     0      0       0
 ---------------------------------------------------------------------------------
 (9) _I2C1_DO_ADDRESS_NACK                                 2     2      0   77429
                                             13 COMRAM     2     2      0
                   Absolute function *
           _I2C1_CallbackReturnReset *
            _I2C1_CallbackReturnStop *
               _I2C1_DO_SEND_RESTART
                  _I2C1_DO_SEND_STOP
              _rd1RegCompleteHandler *
_rd1RegCompleteHandler@i2c1_master_e *
              _rd2RegCompleteHandler *
_rd2RegCompleteHandler@i2c1_master_e *
            _rdBlkRegCompleteHandler *
_rdBlkRegCompleteHandler@i2c1_master *
              _wr1RegCompleteHandler *
_wr1RegCompleteHandler@i2c1_master_e *
              _wr2RegCompleteHandler *
_wr2RegCompleteHandler@i2c1_master_e *
 ---------------------------------------------------------------------------------
 (10) _wr2RegCompleteHandler@i2c1_master_example$F168      2     0      2    7712
                                             11 COMRAM     2     0      2
                     _I2C1_SetBuffer
       _I2C1_SetDataCompleteCallback
 ---------------------------------------------------------------------------------
 (10) _wr2RegCompleteHandler                               2     0      2    7712
                                             11 COMRAM     2     0      2
                     _I2C1_SetBuffer
       _I2C1_SetDataCompleteCallback
 ---------------------------------------------------------------------------------
 (10) _wr1RegCompleteHandler@i2c1_master_example$F162      2     0      2    7712
                                             11 COMRAM     2     0      2
                     _I2C1_SetBuffer
       _I2C1_SetDataCompleteCallback
 ---------------------------------------------------------------------------------
 (10) _wr1RegCompleteHandler                               2     0      2    7712
                                             11 COMRAM     2     0      2
                     _I2C1_SetBuffer
       _I2C1_SetDataCompleteCallback
 ---------------------------------------------------------------------------------
 (10) _rdBlkRegCompleteHandler@i2c1_master_example$F179    2     0      2    7734
                                             11 COMRAM     2     0      2
                     _I2C1_SetBuffer
       _I2C1_SetDataCompleteCallback
 ---------------------------------------------------------------------------------
 (10) _rdBlkRegCompleteHandler                             2     0      2    7734
                                             11 COMRAM     2     0      2
                     _I2C1_SetBuffer
       _I2C1_SetDataCompleteCallback
 ---------------------------------------------------------------------------------
 (10) _rd2RegCompleteHandler@i2c1_master_example$F156      2     0      2    7712
                                             11 COMRAM     2     0      2
                     _I2C1_SetBuffer
       _I2C1_SetDataCompleteCallback
 ---------------------------------------------------------------------------------
 (10) _rd2RegCompleteHandler                               2     0      2    7712
                                             11 COMRAM     2     0      2
                     _I2C1_SetBuffer
       _I2C1_SetDataCompleteCallback
 ---------------------------------------------------------------------------------
 (10) _rd1RegCompleteHandler@i2c1_master_example$F145      2     0      2    7712
                                             11 COMRAM     2     0      2
                     _I2C1_SetBuffer
       _I2C1_SetDataCompleteCallback
 ---------------------------------------------------------------------------------
 (10) _rd1RegCompleteHandler                               2     0      2    7712
                                             11 COMRAM     2     0      2
                     _I2C1_SetBuffer
       _I2C1_SetDataCompleteCallback
 ---------------------------------------------------------------------------------
 (5) _I2C1_SetDataCompleteCallback                         5     0      5    3998
                                              6 COMRAM     5     0      5
                   _I2C1_SetCallback
 ---------------------------------------------------------------------------------
 (6) _I2C1_SetCallback                                     6     1      5     914
                                              0 COMRAM     6     1      5
 ---------------------------------------------------------------------------------
 (5) _I2C1_SetBuffer                                       4     0      4    3692
                                              0 COMRAM     4     0      4
 ---------------------------------------------------------------------------------
 (10) _I2C1_DO_SEND_STOP                                   0     0      0       0
                    _I2C1_MasterStop
 ---------------------------------------------------------------------------------
 (11) _I2C1_MasterStop                                     0     0      0       0
 ---------------------------------------------------------------------------------
 (10) _I2C1_DO_SEND_RESTART                                0     0      0       0
           _I2C1_MasterEnableRestart
 ---------------------------------------------------------------------------------
 (11) _I2C1_MasterEnableRestart                            0     0      0       0
 ---------------------------------------------------------------------------------
 (10) _I2C1_CallbackReturnStop                             2     0      2       0
                                             11 COMRAM     2     0      2
 ---------------------------------------------------------------------------------
 (10) _I2C1_CallbackReturnReset                            2     0      2     265
                                             11 COMRAM     2     0      2
 ---------------------------------------------------------------------------------
 (10) Absolute function(Fake)                              2     0      2       0
 ---------------------------------------------------------------------------------
 (7) _I2C1_MasterStart                                     0     0      0       0
 ---------------------------------------------------------------------------------
 (5) _I2C1_Close                                           1     1      0      24
                                              0 COMRAM     1     1      0
                _I2C1_MasterClearIrq
                   _I2C1_MasterClose
              _I2C1_MasterDisableIrq
 ---------------------------------------------------------------------------------
 (6) _I2C1_MasterDisableIrq                                0     0      0       0
 ---------------------------------------------------------------------------------
 (6) _I2C1_MasterClose                                     0     0      0       0
 ---------------------------------------------------------------------------------
 (6) _I2C1_MasterClearIrq                                  0     0      0       0
 ---------------------------------------------------------------------------------
 (2) _TMR0_Initialize                                      0     0      0       0
 ---------------------------------------------------------------------------------
 (2) _PMD_Initialize                                       0     0      0       0
 ---------------------------------------------------------------------------------
 (2) _PIN_MANAGER_Initialize                               0     0      0       0
 ---------------------------------------------------------------------------------
 (2) _OSCILLATOR_Initialize                                0     0      0       0
 ---------------------------------------------------------------------------------
 (2) _I2C1_Initialize                                      0     0      0       0
 ---------------------------------------------------------------------------------
 Estimated maximum stack depth 11
 ---------------------------------------------------------------------------------

 Call Graph Graphs:

 _main (ROOT)
   _SYSTEM_Initialize
     _I2C1_Initialize
     _OSCILLATOR_Initialize
     _PIN_MANAGER_Initialize
     _PMD_Initialize
     _TMR0_Initialize
     _rtc6_Initialize
       _rtcc_read
         _i2c_read1ByteRegister
           _I2C1_Close
             _I2C1_MasterClearIrq
             _I2C1_MasterClose
             _I2C1_MasterDisableIrq
           _I2C1_MasterWrite
             _I2C1_MasterOperation
               _I2C1_MasterStart
               _I2C1_Poller
                 _I2C1_MasterFsm
                   _I2C1_DO_ADDRESS_NACK *
                     Absolute function(Fake) *
                     _I2C1_CallbackReturnReset *
                     _I2C1_CallbackReturnStop *
                     _I2C1_DO_SEND_RESTART *
                       _I2C1_MasterEnableRestart
                     _I2C1_DO_SEND_STOP *
                       _I2C1_MasterStop
                     _rd1RegCompleteHandler *
                       _I2C1_SetBuffer
                       _I2C1_SetDataCompleteCallback
                         _I2C1_SetCallback
                     _rd1RegCompleteHandler@i2c1_master_example$F145 *
                       _I2C1_SetBuffer
                       _I2C1_SetDataCompleteCallback
                         _I2C1_SetCallback
                     _rd2RegCompleteHandler *
                       _I2C1_SetBuffer
                       _I2C1_SetDataCompleteCallback
                         _I2C1_SetCallback
                     _rd2RegCompleteHandler@i2c1_master_example$F156 *
                       _I2C1_SetBuffer
                       _I2C1_SetDataCompleteCallback
                         _I2C1_SetCallback
                     _rdBlkRegCompleteHandler *
                       _I2C1_SetBuffer
                       _I2C1_SetDataCompleteCallback
                         _I2C1_SetCallback
                     _rdBlkRegCompleteHandler@i2c1_master_example$F179 *
                       _I2C1_SetBuffer
                       _I2C1_SetDataCompleteCallback
                         _I2C1_SetCallback
                     _wr1RegCompleteHandler *
                       _I2C1_SetBuffer
                       _I2C1_SetDataCompleteCallback
                         _I2C1_SetCallback
                     _wr1RegCompleteHandler@i2c1_master_example$F162 *
                       _I2C1_SetBuffer
                       _I2C1_SetDataCompleteCallback
                         _I2C1_SetCallback
                     _wr2RegCompleteHandler *
                       _I2C1_SetBuffer
                       _I2C1_SetDataCompleteCallback
                         _I2C1_SetCallback
                     _wr2RegCompleteHandler@i2c1_master_example$F168 *
                       _I2C1_SetBuffer
                       _I2C1_SetDataCompleteCallback
                         _I2C1_SetCallback
                   _I2C1_DO_IDLE *
                   _I2C1_DO_RCEN *
                     _I2C1_MasterStartRx
                   _I2C1_DO_RESET *
                   _I2C1_DO_RX *
                     Absolute function(Fake) *
                     _I2C1_CallbackReturnReset *
                     _I2C1_CallbackReturnStop *
                     _I2C1_DO_RX_NACK_RESTART *
                       _I2C1_MasterSendNack
                     _I2C1_DO_RX_NACK_STOP *
                       _I2C1_MasterSendNack
                     _I2C1_MasterGetRxData *
                     _I2C1_MasterSendAck *
                     _rd1RegCompleteHandler *
                       _I2C1_SetBuffer
                       _I2C1_SetDataCompleteCallback
                         _I2C1_SetCallback
                     _rd1RegCompleteHandler@i2c1_master_example$F145 *
                       _I2C1_SetBuffer
                       _I2C1_SetDataCompleteCallback
                         _I2C1_SetCallback
                     _rd2RegCompleteHandler *
                       _I2C1_SetBuffer
                       _I2C1_SetDataCompleteCallback
                         _I2C1_SetCallback
                     _rd2RegCompleteHandler@i2c1_master_example$F156 *
                       _I2C1_SetBuffer
                       _I2C1_SetDataCompleteCallback
                         _I2C1_SetCallback
                     _rdBlkRegCompleteHandler *
                       _I2C1_SetBuffer
                       _I2C1_SetDataCompleteCallback
                         _I2C1_SetCallback
                     _rdBlkRegCompleteHandler@i2c1_master_example$F179 *
                       _I2C1_SetBuffer
                       _I2C1_SetDataCompleteCallback
                         _I2C1_SetCallback
                     _wr1RegCompleteHandler *
                       _I2C1_SetBuffer
                       _I2C1_SetDataCompleteCallback
                         _I2C1_SetCallback
                     _wr1RegCompleteHandler@i2c1_master_example$F162 *
                       _I2C1_SetBuffer
                       _I2C1_SetDataCompleteCallback
                         _I2C1_SetCallback
                     _wr2RegCompleteHandler *
                       _I2C1_SetBuffer
                       _I2C1_SetDataCompleteCallback
                         _I2C1_SetCallback
                     _wr2RegCompleteHandler@i2c1_master_example$F168 *
                       _I2C1_SetBuffer
                       _I2C1_SetDataCompleteCallback
                         _I2C1_SetCallback
                   _I2C1_DO_RX_ACK *
                     _I2C1_MasterSendAck
                   _I2C1_DO_RX_NACK_RESTART *
                     _I2C1_MasterSendNack
                   _I2C1_DO_RX_NACK_STOP *
                     _I2C1_MasterSendNack
                   _I2C1_DO_SEND_ADR_READ *
                     _I2C1_MasterSendTxData
                   _I2C1_DO_SEND_ADR_WRITE *
                     _I2C1_MasterSendTxData
                   _I2C1_DO_SEND_RESTART *
                     _I2C1_MasterEnableRestart
                   _I2C1_DO_SEND_RESTART_READ *
                     _I2C1_MasterEnableRestart
                   _I2C1_DO_SEND_RESTART_WRITE *
                     _I2C1_MasterEnableRestart
                   _I2C1_DO_SEND_STOP *
                     _I2C1_MasterStop
                   _I2C1_DO_TX *
                     Absolute function(Fake) *
                     _I2C1_CallbackReturnReset *
                     _I2C1_CallbackReturnStop *
                     _I2C1_DO_SEND_RESTART_READ *
                       _I2C1_MasterEnableRestart
                     _I2C1_DO_SEND_RESTART_WRITE *
                       _I2C1_MasterEnableRestart
                     _I2C1_DO_SEND_STOP *
                       _I2C1_MasterStop
                     _I2C1_MasterIsNack *
                     _I2C1_MasterSendTxData *
                     _rd1RegCompleteHandler *
                       _I2C1_SetBuffer
                       _I2C1_SetDataCompleteCallback
                         _I2C1_SetCallback
                     _rd1RegCompleteHandler@i2c1_master_example$F145 *
                       _I2C1_SetBuffer
                       _I2C1_SetDataCompleteCallback
                         _I2C1_SetCallback
                     _rd2RegCompleteHandler *
                       _I2C1_SetBuffer
                       _I2C1_SetDataCompleteCallback
                         _I2C1_SetCallback
                     _rd2RegCompleteHandler@i2c1_master_example$F156 *
                       _I2C1_SetBuffer
                       _I2C1_SetDataCompleteCallback
                         _I2C1_SetCallback
                     _rdBlkRegCompleteHandler *
                       _I2C1_SetBuffer
                       _I2C1_SetDataCompleteCallback
                         _I2C1_SetCallback
                     _rdBlkRegCompleteHandler@i2c1_master_example$F179 *
                       _I2C1_SetBuffer
                       _I2C1_SetDataCompleteCallback
                         _I2C1_SetCallback
                     _wr1RegCompleteHandler *
                       _I2C1_SetBuffer
                       _I2C1_SetDataCompleteCallback
                         _I2C1_SetCallback
                     _wr1RegCompleteHandler@i2c1_master_example$F162 *
                       _I2C1_SetBuffer
                       _I2C1_SetDataCompleteCallback
                         _I2C1_SetCallback
                     _wr2RegCompleteHandler *
                       _I2C1_SetBuffer
                       _I2C1_SetDataCompleteCallback
                         _I2C1_SetCallback
                     _wr2RegCompleteHandler@i2c1_master_example$F168 *
                       _I2C1_SetBuffer
                       _I2C1_SetDataCompleteCallback
                         _I2C1_SetCallback
                   _I2C1_DO_TX_EMPTY *
                     Absolute function(Fake) *
                     _I2C1_CallbackReturnReset *
                     _I2C1_CallbackReturnStop *
                     _I2C1_DO_SEND_RESTART *
                       _I2C1_MasterEnableRestart
                     _I2C1_DO_SEND_STOP *
                       _I2C1_MasterStop
                     _I2C1_MasterSetIrq *
                     _rd1RegCompleteHandler *
                       _I2C1_SetBuffer
                       _I2C1_SetDataCompleteCallback
                         _I2C1_SetCallback
                     _rd1RegCompleteHandler@i2c1_master_example$F145 *
                       _I2C1_SetBuffer
                       _I2C1_SetDataCompleteCallback
                         _I2C1_SetCallback
                     _rd2RegCompleteHandler *
                       _I2C1_SetBuffer
                       _I2C1_SetDataCompleteCallback
                         _I2C1_SetCallback
                     _rd2RegCompleteHandler@i2c1_master_example$F156 *
                       _I2C1_SetBuffer
                       _I2C1_SetDataCompleteCallback
                         _I2C1_SetCallback
                     _rdBlkRegCompleteHandler *
                       _I2C1_SetBuffer
                       _I2C1_SetDataCompleteCallback
                         _I2C1_SetCallback
                     _rdBlkRegCompleteHandler@i2c1_master_example$F179 *
                       _I2C1_SetBuffer
                       _I2C1_SetDataCompleteCallback
                         _I2C1_SetCallback
                     _wr1RegCompleteHandler *
                       _I2C1_SetBuffer
                       _I2C1_SetDataCompleteCallback
                         _I2C1_SetCallback
                     _wr1RegCompleteHandler@i2c1_master_example$F162 *
                       _I2C1_SetBuffer
                       _I2C1_SetDataCompleteCallback
                         _I2C1_SetCallback
                     _wr2RegCompleteHandler *
                       _I2C1_SetBuffer
                       _I2C1_SetDataCompleteCallback
                         _I2C1_SetCallback
                     _wr2RegCompleteHandler@i2c1_master_example$F168 *
                       _I2C1_SetBuffer
                       _I2C1_SetDataCompleteCallback
                         _I2C1_SetCallback
                   _I2C1_MasterClearIrq *
                   _I2C1_MasterIsNack *
                 _I2C1_MasterWaitForEvent
           _I2C1_Open
             _I2C1_MasterClearIrq
             _I2C1_MasterOpen
           _I2C1_SetAddressNackCallback
             _I2C1_SetCallback
           _I2C1_SetBuffer
           _I2C1_SetDataCompleteCallback
             _I2C1_SetCallback
       _rtcc_write
         _i2c_write1ByteRegister
           _I2C1_Close
             _I2C1_MasterClearIrq
             _I2C1_MasterClose
             _I2C1_MasterDisableIrq
           _I2C1_MasterWrite
             _I2C1_MasterOperation
               _I2C1_MasterStart
               _I2C1_Poller
                 _I2C1_MasterFsm
                   _I2C1_DO_ADDRESS_NACK *
                     Absolute function(Fake) *
                     _I2C1_CallbackReturnReset *
                     _I2C1_CallbackReturnStop *
                     _I2C1_DO_SEND_RESTART *
                       _I2C1_MasterEnableRestart
                     _I2C1_DO_SEND_STOP *
                       _I2C1_MasterStop
                     _rd1RegCompleteHandler *
                       _I2C1_SetBuffer
                       _I2C1_SetDataCompleteCallback
                         _I2C1_SetCallback
                     _rd1RegCompleteHandler@i2c1_master_example$F145 *
                       _I2C1_SetBuffer
                       _I2C1_SetDataCompleteCallback
                         _I2C1_SetCallback
                     _rd2RegCompleteHandler *
                       _I2C1_SetBuffer
                       _I2C1_SetDataCompleteCallback
                         _I2C1_SetCallback
                     _rd2RegCompleteHandler@i2c1_master_example$F156 *
                       _I2C1_SetBuffer
                       _I2C1_SetDataCompleteCallback
                         _I2C1_SetCallback
                     _rdBlkRegCompleteHandler *
                       _I2C1_SetBuffer
                       _I2C1_SetDataCompleteCallback
                         _I2C1_SetCallback
                     _rdBlkRegCompleteHandler@i2c1_master_example$F179 *
                       _I2C1_SetBuffer
                       _I2C1_SetDataCompleteCallback
                         _I2C1_SetCallback
                     _wr1RegCompleteHandler *
                       _I2C1_SetBuffer
                       _I2C1_SetDataCompleteCallback
                         _I2C1_SetCallback
                     _wr1RegCompleteHandler@i2c1_master_example$F162 *
                       _I2C1_SetBuffer
                       _I2C1_SetDataCompleteCallback
                         _I2C1_SetCallback
                     _wr2RegCompleteHandler *
                       _I2C1_SetBuffer
                       _I2C1_SetDataCompleteCallback
                         _I2C1_SetCallback
                     _wr2RegCompleteHandler@i2c1_master_example$F168 *
                       _I2C1_SetBuffer
                       _I2C1_SetDataCompleteCallback
                         _I2C1_SetCallback
                   _I2C1_DO_IDLE *
                   _I2C1_DO_RCEN *
                     _I2C1_MasterStartRx
                   _I2C1_DO_RESET *
                   _I2C1_DO_RX *
                     Absolute function(Fake) *
                     _I2C1_CallbackReturnReset *
                     _I2C1_CallbackReturnStop *
                     _I2C1_DO_RX_NACK_RESTART *
                       _I2C1_MasterSendNack
                     _I2C1_DO_RX_NACK_STOP *
                       _I2C1_MasterSendNack
                     _I2C1_MasterGetRxData *
                     _I2C1_MasterSendAck *
                     _rd1RegCompleteHandler *
                       _I2C1_SetBuffer
                       _I2C1_SetDataCompleteCallback
                         _I2C1_SetCallback
                     _rd1RegCompleteHandler@i2c1_master_example$F145 *
                       _I2C1_SetBuffer
                       _I2C1_SetDataCompleteCallback
                         _I2C1_SetCallback
                     _rd2RegCompleteHandler *
                       _I2C1_SetBuffer
                       _I2C1_SetDataCompleteCallback
                         _I2C1_SetCallback
                     _rd2RegCompleteHandler@i2c1_master_example$F156 *
                       _I2C1_SetBuffer
                       _I2C1_SetDataCompleteCallback
                         _I2C1_SetCallback
                     _rdBlkRegCompleteHandler *
                       _I2C1_SetBuffer
                       _I2C1_SetDataCompleteCallback
                         _I2C1_SetCallback
                     _rdBlkRegCompleteHandler@i2c1_master_example$F179 *
                       _I2C1_SetBuffer
                       _I2C1_SetDataCompleteCallback
                         _I2C1_SetCallback
                     _wr1RegCompleteHandler *
                       _I2C1_SetBuffer
                       _I2C1_SetDataCompleteCallback
                         _I2C1_SetCallback
                     _wr1RegCompleteHandler@i2c1_master_example$F162 *
                       _I2C1_SetBuffer
                       _I2C1_SetDataCompleteCallback
                         _I2C1_SetCallback
                     _wr2RegCompleteHandler *
                       _I2C1_SetBuffer
                       _I2C1_SetDataCompleteCallback
                         _I2C1_SetCallback
                     _wr2RegCompleteHandler@i2c1_master_example$F168 *
                       _I2C1_SetBuffer
                       _I2C1_SetDataCompleteCallback
                         _I2C1_SetCallback
                   _I2C1_DO_RX_ACK *
                     _I2C1_MasterSendAck
                   _I2C1_DO_RX_NACK_RESTART *
                     _I2C1_MasterSendNack
                   _I2C1_DO_RX_NACK_STOP *
                     _I2C1_MasterSendNack
                   _I2C1_DO_SEND_ADR_READ *
                     _I2C1_MasterSendTxData
                   _I2C1_DO_SEND_ADR_WRITE *
                     _I2C1_MasterSendTxData
                   _I2C1_DO_SEND_RESTART *
                     _I2C1_MasterEnableRestart
                   _I2C1_DO_SEND_RESTART_READ *
                     _I2C1_MasterEnableRestart
                   _I2C1_DO_SEND_RESTART_WRITE *
                     _I2C1_MasterEnableRestart
                   _I2C1_DO_SEND_STOP *
                     _I2C1_MasterStop
                   _I2C1_DO_TX *
                     Absolute function(Fake) *
                     _I2C1_CallbackReturnReset *
                     _I2C1_CallbackReturnStop *
                     _I2C1_DO_SEND_RESTART_READ *
                       _I2C1_MasterEnableRestart
                     _I2C1_DO_SEND_RESTART_WRITE *
                       _I2C1_MasterEnableRestart
                     _I2C1_DO_SEND_STOP *
                       _I2C1_MasterStop
                     _I2C1_MasterIsNack *
                     _I2C1_MasterSendTxData *
                     _rd1RegCompleteHandler *
                       _I2C1_SetBuffer
                       _I2C1_SetDataCompleteCallback
                         _I2C1_SetCallback
                     _rd1RegCompleteHandler@i2c1_master_example$F145 *
                       _I2C1_SetBuffer
                       _I2C1_SetDataCompleteCallback
                         _I2C1_SetCallback
                     _rd2RegCompleteHandler *
                       _I2C1_SetBuffer
                       _I2C1_SetDataCompleteCallback
                         _I2C1_SetCallback
                     _rd2RegCompleteHandler@i2c1_master_example$F156 *
                       _I2C1_SetBuffer
                       _I2C1_SetDataCompleteCallback
                         _I2C1_SetCallback
                     _rdBlkRegCompleteHandler *
                       _I2C1_SetBuffer
                       _I2C1_SetDataCompleteCallback
                         _I2C1_SetCallback
                     _rdBlkRegCompleteHandler@i2c1_master_example$F179 *
                       _I2C1_SetBuffer
                       _I2C1_SetDataCompleteCallback
                         _I2C1_SetCallback
                     _wr1RegCompleteHandler *
                       _I2C1_SetBuffer
                       _I2C1_SetDataCompleteCallback
                         _I2C1_SetCallback
                     _wr1RegCompleteHandler@i2c1_master_example$F162 *
                       _I2C1_SetBuffer
                       _I2C1_SetDataCompleteCallback
                         _I2C1_SetCallback
                     _wr2RegCompleteHandler *
                       _I2C1_SetBuffer
                       _I2C1_SetDataCompleteCallback
                         _I2C1_SetCallback
                     _wr2RegCompleteHandler@i2c1_master_example$F168 *
                       _I2C1_SetBuffer
                       _I2C1_SetDataCompleteCallback
                         _I2C1_SetCallback
                   _I2C1_DO_TX_EMPTY *
                     Absolute function(Fake) *
                     _I2C1_CallbackReturnReset *
                     _I2C1_CallbackReturnStop *
                     _I2C1_DO_SEND_RESTART *
                       _I2C1_MasterEnableRestart
                     _I2C1_DO_SEND_STOP *
                       _I2C1_MasterStop
                     _I2C1_MasterSetIrq *
                     _rd1RegCompleteHandler *
                       _I2C1_SetBuffer
                       _I2C1_SetDataCompleteCallback
                         _I2C1_SetCallback
                     _rd1RegCompleteHandler@i2c1_master_example$F145 *
                       _I2C1_SetBuffer
                       _I2C1_SetDataCompleteCallback
                         _I2C1_SetCallback
                     _rd2RegCompleteHandler *
                       _I2C1_SetBuffer
                       _I2C1_SetDataCompleteCallback
                         _I2C1_SetCallback
                     _rd2RegCompleteHandler@i2c1_master_example$F156 *
                       _I2C1_SetBuffer
                       _I2C1_SetDataCompleteCallback
                         _I2C1_SetCallback
                     _rdBlkRegCompleteHandler *
                       _I2C1_SetBuffer
                       _I2C1_SetDataCompleteCallback
                         _I2C1_SetCallback
                     _rdBlkRegCompleteHandler@i2c1_master_example$F179 *
                       _I2C1_SetBuffer
                       _I2C1_SetDataCompleteCallback
                         _I2C1_SetCallback
                     _wr1RegCompleteHandler *
                       _I2C1_SetBuffer
                       _I2C1_SetDataCompleteCallback
                         _I2C1_SetCallback
                     _wr1RegCompleteHandler@i2c1_master_example$F162 *
                       _I2C1_SetBuffer
                       _I2C1_SetDataCompleteCallback
                         _I2C1_SetCallback
                     _wr2RegCompleteHandler *
                       _I2C1_SetBuffer
                       _I2C1_SetDataCompleteCallback
                         _I2C1_SetCallback
                     _wr2RegCompleteHandler@i2c1_master_example$F168 *
                       _I2C1_SetBuffer
                       _I2C1_SetDataCompleteCallback
                         _I2C1_SetCallback
                   _I2C1_MasterClearIrq *
                   _I2C1_MasterIsNack *
                 _I2C1_MasterWaitForEvent
           _I2C1_Open
             _I2C1_MasterClearIrq
             _I2C1_MasterOpen
           _I2C1_SetAddressNackCallback
             _I2C1_SetCallback
           _I2C1_SetBuffer
           _I2C1_SetDataCompleteCallback
             _I2C1_SetCallback
   _TMR0_HasOverflowOccured
   _TMR0_StartTimer
   _TMR0_StopTimer

 Address spaces:
Name               Size   Autos  Total    Cost      Usage
BIGRAM             DE9      0       0      33        0.0%
EEDATA             400      0       0       0        0.0%
BITBANK12          100      0       0      29        0.0%
BANK12             100      0       0      30        0.0%
BITBANK11          100      0       0      27        0.0%
BANK11             100      0       0      28        0.0%
BITBANK10          100      0       0      25        0.0%
BANK10             100      0       0      26        0.0%
BITBANK9           100      0       0      23        0.0%
BANK9              100      0       0      24        0.0%
BITBANK8           100      0       0      21        0.0%
BANK8              100      0       0      22        0.0%
BITBANK7           100      0       0      19        0.0%
BANK7              100      0       0      20        0.0%
BITBANK6           100      0       0      17        0.0%
BANK6              100      0       0      18        0.0%
BITBANK5           100      0       0      15        0.0%
BANK5              100      0       0      16        0.0%
BITBANK4           100      0       0      13        0.0%
BANK4              100      0       0      14        0.0%
BITBANK3           100      0       0      11        0.0%
BANK3              100      0       0      12        0.0%
BITBANK2           100      0       0       9        0.0%
BANK2              100      0       0      10        0.0%
BITBANK1           100      0       0       6        0.0%
BANK1              100      0       0       7        0.0%
BITBANK13           EA      0       0      31        0.0%
BANK13              EA      0       0      32        0.0%
BITBANK0            A0      0       0       4        0.0%
BANK0               A0      0      82       5       81.2%
BITCOMRAM           5F      0       0       0        0.0%
COMRAM              5F     1B      5D       1       97.9%
BITSFR_3             0      0       0     200        0.0%
SFR_3                0      0       0     200        0.0%
BITSFR_2             0      0       0     200        0.0%
SFR_2                0      0       0     200        0.0%
BITSFR_1             0      0       0     200        0.0%
SFR_1                0      0       0     200        0.0%
BITSFR               0      0       0     200        0.0%
SFR                  0      0       0     200        0.0%
STACK                0      0       0       2        0.0%
NULL                 0      0       0       0        0.0%
ABS                  0      0      DF       8        0.0%
DATA                 0      0      DF       3        0.0%
CODE                 0      0       0       0        0.0%


Microchip Technology PIC18 Macro Assembler V2.31 build 20201012212115 
Symbol Table                                                                                   Thu Mar 11 23:01:41 2021

                          __end_of_TMR0_HasOverflowOccured 18C6  
                                                       l17 174C  
                                                       l50 10A0  
                                                       l26 13D8  
                                                       l53 16EC  
                                                       l38 171C  
                                                       l65 16BC  
                                                       l77 157C  
                                                       _r0 00CA  
                                                       _r1 00C0  
                                                       _zi 0037  
                                            rtcc_read@addr 0056  
                                                      l240 187C  
                                                      l234 1896  
                                                      l500 1902  
                                                      l237 18AE  
                                                      l191 162C  
                                                      l520 1964  
                                                      l504 11E6  
                                                      l185 168C  
                                                      l530 1860  
                                                      l194 177C  
                                                      l514 15BE  
                                                      l603 1362  
                                                      l508 17A6  
                                                      l188 165C  
                                                      l380 19CE  
                                                      l197 1538  
                                                      l621 199C  
                                                      l702 19B6  
                                                      l630 1984  
                                                      l359 0FEE  
                                                      l527 180C  
                                                      l383 19CA  
                                                      l720 19C2  
                                                      l560 195C  
                                                      l624 1994  
                                                      l536 1828  
                                                      l377 18DA  
                                                      l633 197C  
                                                      l553 1844  
                                                      l642 1948  
                                                      l730 1914  
                                                      l547 126A  
                                                      l723 19AA  
                                                      l563 193E  
                                                      l627 198C  
                                                      l395 18C4  
                                                      l572 0F36  
                                                      l636 1974  
                                                      l717 19BC  
                                                      l557 14A6  
                                                      l566 1930  
                                                      l726 1904  
                                                      l639 196C  
                                                      l672 19EE  
                                                      l656 19DE  
                                                      l648 1442  
                                                      l681 19E6  
                                                      l569 0F02  
                                                      l585 10D6  
                                                      l690 19EA  
                                                      l586 1146  
                                                      l659 19DA  
                                                      l675 19D2  
                                                      l772 1922  
                                                      l693 19E2  
                                                      l597 1952  
                                                      l669 17EA  
                                                      l781 12E6  
                                                      l678 19A4  
                                                      l687 19D6  
                                                      l775 17C8  
                                                      l696 18EE  
                                                      l699 19B0  
                                                      u600 11FE  
                                                      u280 18C2  
                                                      u601 11FA  
                                                      u281 18BC  
                                                      u610 17FA  
                                                      u611 17F6  
                                                      u620 18EC  
                                                      u700 1914  
                                                      u621 18E6  
                                                      u701 1910  
                                                      u630 0E88  
                                                      u710 1456  
                                                      u286 18C4  
                                                      u631 0E84  
                                                      u711 1452  
                                                      u720 146A  
                                                      u721 1466  
                                                      u626 18EE  
                                                      u650 0F2E  
                                                      u810 137C  
                                                      u651 0F2A  
                                                      u811 1378  
                                                      u660 10CC  
                                                      u740 1844  
                                                      u820 13D8  
                                                      u661 10C8  
                                                      u741 1840  
                                                      u821 13D4  
                                                      u750 17D8  
                                                      u830 1014  
                                                      u751 17D4  
                                                      u831 1010  
                                                      u648 0EB6  
                                                      u760 1592  
                                                      u840 1072  
                                                      u649 0ECA  
                                                      u761 158E  
                                                      u841 106E  
                                                      u738 148A  
                                                      u770 15A8  
                                                      u850 1082  
                                                      u739 14A4  
                                                      u771 15A4  
                                                      u851 107E  
                                                      u780 115C  
                                                      u860 109E  
                                                      u781 1158  
                                                      u861 109A  
                                                      u790 1790  
                                                      u678 10FA  
                                                      u791 178C  
                                                      u679 110E  
                                                      u688 1316  
                                                      u689 132A  
                                                      u698 1406  
                                                      u699 141A  
                                    ?_I2C1_MasterOperation 003F  
                                  __size_of_PMD_Initialize 001C  
                                                      prod 000FF3  
                                                      tosl 000FFD  
                                                      wreg 000FE8  
                                   ?_I2C1_MasterSendTxData 003F  
                        __size_of_I2C1_MasterEnableRestart 0004  
                                     _I2C1_DO_RX_NACK_STOP 196E  
                                ?_I2C1_MasterEnableRestart 003F  
                                 fp__I2C1_DO_SEND_ADR_READ 0000  
                                  fp__I2C1_DO_SEND_RESTART 0000  
                                     I2C1_SetBuffer@buffer 003F  
                                  ??_rd2RegCompleteHandler 004C  
                                                     l3000 0F2E  
                                                     l3002 0F34  
                                                     l3010 10A2  
                                                     l3012 10B0  
                                                     l3100 13F4  
                                                     l2310 18F0  
                                                     l3014 10B4  
                                                     l3110 1448  
                                                     l2312 1900  
                                                     l2320 0F5C  
                                                     l3024 10DC  
                                                     l3016 10CC  
                                                     l3040 194A  
                                                     l3112 1456  
                                                     l3120 182A  
                                                     l3200 11D8  
                                                     l2400 19C8  
                                                     l2330 0F78  
                                                     l2322 0F62  
                                                     l2314 0F38  
                                                     l3050 12EE  
                                                     l3034 10EC  
                                                     l3018 10D0  
                                                     l3042 194C  
                                                     l3114 146A  
                                                     l3122 182E  
                                                     l3130 17D8  
                                                     l3202 11DC  
                                                     l3210 180E  
                                                     l2402 18B0  
                                                     l2340 0FC2  
                                                     l2332 0F7A  
                                                     l2324 0F68  
                                                     l2316 0F58  
                                                     l2308 1862  
                                                     l3220 1790  
                                                     l3060 1300  
                                                     l3028 10E4  
                                                     l3044 1950  
                                                     l3116 146E  
                                                     l3108 1444  
                                                     l3124 1832  
                                                     l3140 1580  
                                                     l3212 195E  
                                                     l3132 17E8  
                                                     l3204 11E0  
                                                     l2350 0FCC  
                                                     l2342 0FC4  
                                                     l2334 0F7C  
                                                     l2326 0F74  
                                                     l2318 0F5A  
                                                     l3222 1794  
                                                     l3118 19E8  
                                                     l3054 12F6  
                                                     l3126 1836  
                                                     l3150 15A8  
                                                     l3142 1584  
                                                     l3206 11E4  
                                                     l2360 0FD6  
                                                     l2352 0FCE  
                                                     l2344 0FC6  
                                                     l2336 0FBE  
                                                     l2328 0F76  
                                                     l3136 19B8  
                                                     l3224 17A0  
                                                     l3216 177E  
                                                     l3056 12FA  
                                                     l3048 12E8  
                                                     l3072 1976  
                                                     l3080 1942  
                                                     l3152 15B0  
                                                     l3144 1592  
                                                     l3128 17CA  
                                                     l3240 1366  
                                                     l3320 17AA  
                                                     l2362 0FD8  
                                                     l2354 0FD0  
                                                     l2346 0FC8  
                                                     l2338 0FC0  
                                                     l2370 18C6  
                                                     l3138 19EC  
                                                     l3226 17A4  
                                                     l3218 1782  
                                                     l3066 1308  
                                                     l3074 197A  
                                                     l3082 1946  
                                                     l3090 13E4  
                                                     l3154 15B4  
                                                     l3146 1594  
                                                     l3170 1162  
                                                     l3162 114A  
                                                     l3250 13C4  
                                                     l3242 137C  
                                                     l3322 17B8  
                                                     l2364 0FDA  
                                                     l2356 0FD2  
                                                     l2348 0FCA  
                                                     l2372 18D2  
                                                     l3156 15B8  
                                                     l3148 1598  
                                                     l3180 1174  
                                                     l3172 1164  
                                                     l3164 114E  
                                                     l3260 1014  
                                                     l3252 0FF2  
                                                     l3316 1918  
                                                     l3244 1394  
                                                     l2366 0FDC  
                                                     l2358 0FD4  
                                                     l3078 1940  
                                                     l3094 13EC  
                                                     l3086 13DA  
                                                     l3158 15BC  
                                                     l3190 11A8  
                                                     l3182 1180  
                                                     l3174 1166  
                                                     l3166 115C  
                                                     l3270 1072  
                                                     l3262 102C  
                                                     l3246 13A8  
                                                     l3238 1366  
                                                     l2368 1898  
                                                     l2800 180A  
                                                     l3088 13DC  
                                                     l3192 11B0  
                                                     l3184 1188  
                                                     l3176 116A  
                                                     l3168 1160  
                                                     l3264 1040  
                                                     l3248 13C0  
                                                     l2802 1846  
                                                     l2810 171E  
                                                     l3194 11BC  
                                                     l3186 1194  
                                                     l3178 1172  
                                                     l3274 1086  
                                                     l3266 1058  
                                                     l3258 0FFE  
                                                     l3450 1290  
                                                     l4330 14C8  
                                                     l4322 14A8  
                                                     l2804 19E4  
                                                     l2812 1732  
                                                     l2820 1702  
                                                     l3196 11C4  
                                                     l3188 119C  
                                                     l3276 108C  
                                                     l3268 105C  
                                                     l3460 12C8  
                                                     l3452 12A0  
                                                     l3444 126C  
                                                     l4332 14EA  
                                                     l4324 14AC  
                                                     l2806 19E0  
                                                     l2814 174A  
                                                     l2822 171A  
                                                     l2830 16EA  
                                                     l2902 198E  
                                                     l2910 1982  
                                                     l3198 11D0  
                                                     l3278 109E  
                                                     l3462 12D8  
                                                     l3454 12AA  
                                                     l3446 1270  
                                                     l2398 19CC  
                                                     l4326 14B0  
                                                     l2808 19B2  
                                                     l2904 1992  
                                                     l2920 1966  
                                                     l3456 12BC  
                                                     l3448 1284  
                                                     l4328 14C4  
                                                     l2818 16EE  
                                                     l2826 16BE  
                                                     l2834 168E  
                                                     l2842 153A  
                                                     l2850 165E  
                                                     l2914 19D0  
                                                     l2922 196A  
                                                     l3458 12C4  
                                                     l2828 16D2  
                                                     l2836 16A2  
                                                     l2844 1562  
                                                     l2852 1672  
                                                     l2860 1642  
                                                     l2932 19D4  
                                                     l2940 19A6  
                                                     l4540 1120  
                                                     l2908 197E  
                                                     l2950 19BE  
                                                     l2790 11FE  
                                                     l2838 16BA  
                                                     l2846 157A  
                                                     l2854 168A  
                                                     l2862 165A  
                                                     l2870 162A  
                                                     l2942 19DC  
                                                     l2918 19AC  
                                                     l4542 0EDC  
                                                     l2934 1986  
                                                     l2926 196E  
                                                     l2792 1236  
                                                     l4544 133C  
                                                     l2952 1954  
                                                     l2960 1932  
                                                     l2936 198A  
                                                     l2928 1972  
                                                     l3824 187E  
                                                     l2794 17EC  
                                                     l2874 174E  
                                                     l2858 162E  
                                                     l2866 15FE  
                                                     l2882 14F6  
                                                     l2946 19D8  
                                                     l2890 18DC  
                                                     l2954 1956  
                                                     l2962 1934  
                                                     l2970 1926  
                                                     l4538 142C  
                                                     l3826 1892  
                                                     l2796 17FA  
                                                     l2788 11EA  
                                                     l2876 1762  
                                                     l2868 1612  
                                                     l2884 151E  
                                                     l2956 195A  
                                                     l2964 193C  
                                                     l2972 192E  
                                                     l2980 0E8C  
                                                     l2798 1802  
                                                     l2878 177A  
                                                     l2886 1536  
                                                     l2894 19A0  
                                                     l2968 1924  
                                                     l2984 0E94  
                                                     l2976 0E74  
                                                     l2896 1996  
                                                     l2994 0EA4  
                                                     l2898 199A  
                                                     l2996 0F04  
                                                     l2988 0E9C  
                                                     l2998 0F16  
                                                     STR_1 0E71  
                                                     u1080 12D8  
                                                     u1081 12D4  
                                                     _LATA 000F79  
                                                     _LATB 000F7A  
                                                     _LATC 000F7B  
                                                     _LATD 000F7C  
                                                     _LATE 000F7D  
                                                     _LATF 000F7E  
                                                     _LATG 000F7F  
                                                     u2180 14C4  
                                                     _LATH 000F80  
                                                     u2317 17BE  
                                                     u2181 14C0  
                                                     u2190 14D8  
                                                     u2191 14D2  
                                                     u2196 14DA  
                                                     _PMD0 000E4C  
                                                     _PMD1 000E4D  
                                                     _PMD2 000E4E  
                                                     _PMD3 000E4F  
                                                     _PMD4 000E50  
                                                     _PMD5 000E51  
                                                     _WPUA 000E91  
                                                     _WPUB 000E99  
                                                     _WPUC 000EA1  
                                                     _WPUD 000EA6  
                                                     _WPUE 000EAE  
                                                     _WPUF 000EB3  
                                                     _WPUG 000EBB  
                                                     _WPUH 000EC0  
                                  ??_wr2RegCompleteHandler 004C  
                                         ??_I2C1_MasterFsm 004E  
                         __size_of_I2C1_DO_RX_NACK_RESTART 0008  
                                ??_I2C1_CallbackReturnStop 004C  
                                                     _main 14A8  
                                                     _lock 0074  
                                          _TMR0_StartTimer 19CC  
                                                     fsr2h 000FDA  
                                                     indf2 000FDF  
                                                     fsr1l 000FE1  
                                                     fsr2l 000FD9  
                                                     prodh 000FF4  
                                                     prodl 000FF3  
                                                     start 0000  
                                         ??_I2C1_SetBuffer 0043  
                                             ___param_bank 000000  
                         __size_of_rdBlkRegCompleteHandler 0044  
                            I2C1_CallbackReturnStop@funPtr 004A  
                                  __end_of_TMR0_Initialize 18DC  
                                   _i2c_write1ByteRegister 1364  
                           __size_of_OSCILLATOR_Initialize 0018  
                            __end_of_OSCILLATOR_Initialize 18B0  
                                        __end_of_I2C1_Open 11E8  
                                                    ?_main 003F  
                               __end_of_i2c1_fsmStateTable 0E61  
                                                    _OSCEN 000E47  
                                                    _TMR0H 000FD4  
                                                    _TMR0L 000FD3  
                                                    _TRISA 000F81  
                                                    _TRISB 000F82  
                                                    _TRISC 000F83  
                                                    _TRISD 000F84  
                                                    _TRISE 000F85  
                                                    _TRISF 000F86  
                                                    _TRISG 000F87  
                                                    _TRISH 000F88  
                                   ??_I2C1_MasterGetRxData 003F  
                                    ?_I2C1_DO_RX_NACK_STOP 003F  
                               ??_I2C1_CallbackReturnReset 004C  
                                        ??_I2C1_MasterOpen 003F  
                                        ??_I2C1_MasterStop 003F  
                                        ??_I2C1_Initialize 003F  
                                                    ___gmt 0E6D  
                                                    _index 0033  
                                                    _errno 003D  
                                                    _trans 0035  
                                    _i2c_read1ByteRegister 0FF0  
                                                    _types 0031  
        rd1RegCompleteHandler@i2c1_master_example$F145@ptr 004A  
        wr1RegCompleteHandler@i2c1_master_example$F162@ptr 004A  
                                                    pclath 000FFA  
        rd2RegCompleteHandler@i2c1_master_example$F156@ptr 004A  
                                                    tablat 000FF5  
        wr2RegCompleteHandler@i2c1_master_example$F168@ptr 004A  
      rdBlkRegCompleteHandler@i2c1_master_example$F179@ptr 004A  
                                i2c_write1ByteRegister@reg 0050  
                                                    status 000FD8  
                              __size_of_I2C1_MasterSendAck 0006  
                                             ??_I2C1_DO_RX 004C  
                                             ??_I2C1_DO_TX 004C  
                                   ??_I2C1_DO_ADDRESS_NACK 004C  
                                             ??_I2C1_Close 003F  
                              __size_of_I2C1_MasterStartRx 0004  
                                 fp__rd1RegCompleteHandler 0000  
                                          __initialization 15C0  
                                             __end_of_main 14F6  
                                 fp__wr1RegCompleteHandler 0000  
                             fp__I2C1_DO_SEND_RESTART_READ 0000  
                                   ??_I2C1_MasterOperation 004E  
                                                   ??_main 0059  
                                            __activetblptr 000003  
                            __size_of_I2C1_DO_SEND_RESTART 0008  
                                       __end_of_I2C1_DO_RX 1148  
                                       __end_of_I2C1_DO_TX 0F38  
                                       __end_of_I2C1_Close 17A8  
                                  __end_of_TMR0_StartTimer 19D0  
                                                   _ANSELA 000E92  
                                                   _ANSELB 000E9A  
                                                   _ANSELD 000EA7  
                                                   _ANSELE 000EAF  
                                                   _ANSELF 000EB4  
                                                   _ANSELG 000EBC  
                                                   _T0CON0 000FD5  
                                                   _T0CON1 000FD6  
                                           rtcc_write@addr 0055  
                                                   _RC3PPS 000E65  
                                           rtcc_write@data 0053  
                                                   _RC5PPS 000E67  
                                                   _ODCONA 000E90  
                                                   _ODCONB 000E98  
                                                   _ODCONC 000EA0  
                                                   _ODCOND 000EA5  
                                                   _ODCONE 000EAD  
                                                   _ODCONF 000EB2  
                                                   _ODCONG 000EBA  
                                                   _ODCONH 000EBF  
                     __size_of_I2C1_SetAddressNackCallback 001C  
                                                   _INLVLA 000E8E  
                                                   _INLVLB 000E96  
                                                   _INLVLC 000E9E  
                                                   _INLVLD 000EA3  
                                                   _INLVLE 000EAB  
                                                   _INLVLF 000EB0  
                                                   _INLVLG 000EB8  
                                                   _INLVLH 000EBD  
                                                   _OSCFRQ 000E49  
                         __size_of_TMR0_HasOverflowOccured 0016  
                                        ?_I2C1_MasterClose 003F  
                                                   _STATUS 000FD8  
                                 rdBlkRegCompleteHandler@p 004A  
                                  ??_I2C1_MasterDisableIrq 003F  
                                        ?_I2C1_MasterStart 003F  
                                        ?_I2C1_MasterWrite 003F  
                                 ?_I2C1_MasterWaitForEvent 003F  
                                       ??_I2C1_MasterClose 003F  
                                       rtc6_Initialize@reg 0058  
                                         _I2C1_DO_TX_EMPTY 12E8  
                                       ??_I2C1_MasterStart 003F  
                                       ??_I2C1_MasterWrite 0050  
                             __size_of_I2C1_MasterClearIrq 0006  
                                         ?_TMR0_Initialize 003F  
                                                   clear_0 15E6  
                                                   clear_1 15F2  
                                                   _old_tz 005C  
                                 ??_I2C1_DO_SEND_ADR_WRITE 0040  
                                                   _tzname 006E  
                                        ?_I2C1_SetCallback 003F  
                                   ??_I2C1_DO_RX_NACK_STOP 003F  
                                    _I2C1_DO_SEND_ADR_READ 1932  
                                           _PMD_Initialize 1862  
                                             __pdataCOMRAM 005A  
                            ?_I2C1_SetDataCompleteCallback 0045  
                               i2c_write1ByteRegister@data 0051  
                                       ??_I2C1_SetCallback 0044  
                                             __mediumconst 0000  
                                                   tblptrh 000FF7  
                                                   tblptrl 000FF6  
                                                   tblptru 000FF8  
                                   ?_i2c_read1ByteRegister 0050  
                             __size_of_I2C1_MasterSendNack 0006  
                                  _I2C1_DO_RX_NACK_RESTART 1966  
                                              localtime@tm 00A8  
                               fp__I2C1_DO_RX_NACK_RESTART 0000  
                                        _SYSTEM_Initialize 187E  
                                               ___daylight 003B  
                           I2C1_SetDataCompleteCallback@cb 0045  
                                               __accesstop 0060  
                                  __end_of__initialization 15F8  
                          I2C1_MasterOperation@returnValue 004F  
                                       ?_SYSTEM_Initialize 003F  
                                            ___rparam_used 000001  
                                            ??_I2C1_Poller 004E  
                                  _rdBlkRegCompleteHandler 153A  
                               fp__rdBlkRegCompleteHandler 0000  
                                           __pcstackCOMRAM 003F  
                                            __end_of___gmt 0E71  
                                      ??_SYSTEM_Initialize 0059  
                         __end_of_I2C1_MasterEnableRestart 19E8  
                                   __end_of_PMD_Initialize 187E  
                             ??_I2C1_DO_SEND_RESTART_WRITE 003F  
                                               ___timezone 0084  
                                  ??_I2C1_MasterSendTxData 003F  
                                    __end_of_I2C1_DO_RESET 194A  
                                         ?_TMR0_StartTimer 003F  
                                __end_of_SYSTEM_Initialize 1898  
                                               __pbssBANK0 0060  
                          __end_of_I2C1_MasterWaitForEvent 1916  
                           __size_of_rd2RegCompleteHandler 0030  
                            __end_of_rd2RegCompleteHandler 16EE  
                                     I2C1_Open@returnValue 0040  
                           __size_of_wr2RegCompleteHandler 0030  
                            __end_of_wr2RegCompleteHandler 16BE  
                                    _rd1RegCompleteHandler 16EE  
                                 __size_of_rtc6_Initialize 007C  
                                        _I2C1_DO_SEND_STOP 197E  
                                    _wr1RegCompleteHandler 171E  
                      __size_of_I2C1_DO_SEND_RESTART_WRITE 0008  
                                            fp__I2C1_DO_RX 0000  
                                            fp__I2C1_DO_TX 0000  
                                          fp__I2C1_DO_IDLE 0000  
                                  ?_i2c_write1ByteRegister 0050  
                                          fp__I2C1_DO_RCEN 0000  
                                  fp__I2C1_DO_ADDRESS_NACK 0000  
                                  __size_of_TMR0_StopTimer 0004  
                                       ?_I2C1_DO_SEND_STOP 003F  
                                          _I2C1_MasterOpen 17CA  
                                          _I2C1_MasterStop 19E0  
                                          _I2C1_Initialize 18F0  
                                      __end_of_I2C1_Poller 1846  
                                  __size_of_I2C1_DO_RX_ACK 0008  
                                        fp__I2C1_DO_RX_ACK 0000  
                                          ?_PMD_Initialize 003F  
                                   ?_I2C1_DO_SEND_ADR_READ 003F  
                                      ??_I2C1_DO_SEND_STOP 003F  
                          __size_of_I2C1_DO_SEND_ADR_WRITE 000E  
                                       __size_of_rtcc_read 000E  
                                        _I2C1_MasterIsNack 18DC  
                                                  _OSCCON1 000E43  
                                                  _OSCCON3 000E45  
                                                _I2C1_Open 1148  
                                ??_I2C1_DO_RX_NACK_RESTART 003F  
                                                  _OSCTUNE 000E48  
                                        _I2C1_MasterSetIrq 19A6  
                       __size_of_I2C1_DO_SEND_RESTART_READ 0008  
                                                  _SSP1ADD 000F92  
                                                  _SLRCONA 000E8F  
                                                  _SLRCONB 000E97  
                                                  _SLRCONC 000E9F  
                                                  _SLRCOND 000EA4  
                                                  _SLRCONE 000EAC  
                                                  _SLRCONF 000EB1  
                                                  _SLRCONG 000EB9  
                                                  _SLRCONH 000EBE  
                                                  _SSP1BUF 000F91  
                                       ?_I2C1_MasterIsNack 003F  
                               ?_I2C1_DO_SEND_RESTART_READ 003F  
                            i2c_write1ByteRegister@address 0052  
                           ??_I2C1_SetDataCompleteCallback 004A  
                                       ?_I2C1_MasterSetIrq 003F  
                                  _TMR0_HasOverflowOccured 18B0  
                                       _i2c1_fsmStateTable 0E31  
                                      ??_I2C1_MasterIsNack 003F  
        fp__rd1RegCompleteHandler@i2c1_master_example$F145 0000  
   __end_of_rd1RegCompleteHandler@i2c1_master_example$F145 168E  
  __size_of_rd1RegCompleteHandler@i2c1_master_example$F145 0030  
           _rd1RegCompleteHandler@i2c1_master_example$F145 165E  
        fp__wr1RegCompleteHandler@i2c1_master_example$F162 0000  
   __end_of_wr1RegCompleteHandler@i2c1_master_example$F162 162E  
  __size_of_wr1RegCompleteHandler@i2c1_master_example$F162 0030  
           _wr1RegCompleteHandler@i2c1_master_example$F162 15FE  
        fp__rd2RegCompleteHandler@i2c1_master_example$F156 0000  
   __end_of_rd2RegCompleteHandler@i2c1_master_example$F156 165E  
  __size_of_rd2RegCompleteHandler@i2c1_master_example$F156 0030  
           _rd2RegCompleteHandler@i2c1_master_example$F156 162E  
        fp__wr2RegCompleteHandler@i2c1_master_example$F168 0000  
   __end_of_wr2RegCompleteHandler@i2c1_master_example$F168 177E  
  __size_of_wr2RegCompleteHandler@i2c1_master_example$F168 0030  
           _wr2RegCompleteHandler@i2c1_master_example$F168 174E  
      fp__rdBlkRegCompleteHandler@i2c1_master_example$F179 0000  
 __end_of_rdBlkRegCompleteHandler@i2c1_master_example$F179 153A  
__size_of_rdBlkRegCompleteHandler@i2c1_master_example$F179 0044  
         _rdBlkRegCompleteHandler@i2c1_master_example$F179 14F6  
                                __end_of_I2C1_DO_SEND_STOP 1986  
                                ??_rdBlkRegCompleteHandler 004C  
                                       I2C1_SetCallback@cb 003F  
                                      ??_I2C1_MasterSetIrq 003F  
                           __end_of_i2c_write1ByteRegister 13DA  
                                                  __Hparam 0000  
                                                  __Lparam 0000  
                                      fp__I2C1_DO_TX_EMPTY 0000  
                                                  _abbrevs 002F  
                                             __psmallconst 0E00  
                                                  __pcinit 15C0  
                                            ?_I2C1_DO_IDLE 003F  
                                            ?_I2C1_DO_RCEN 003F  
                                                  __ramtop 0E00  
                                                  __ptext0 14A8  
                                                  __ptext1 19C8  
                                                  __ptext2 19CC  
                                                  __ptext3 18B0  
                                                  __ptext4 187E  
                                                  __ptext5 126C  
                                                  __ptext6 17A8  
                                                  __ptext7 1364  
                                                  __ptext8 1916  
                                                  __ptext9 0FF0  
                                 _I2C1_MasterEnableRestart 19E4  
                                __end_of_I2C1_MasterIsNack 18F0  
                             ?_I2C1_SetAddressNackCallback 0045  
                                                  _dst_off 0078  
                                    _OSCILLATOR_Initialize 1898  
                                __end_of_I2C1_MasterSetIrq 19AC  
                                 __end_of_I2C1_DO_TX_EMPTY 1364  
                                 ??_PIN_MANAGER_Initialize 003F  
                                               ?_I2C1_Open 003F  
                            __size_of_I2C1_MasterGetRxData 0004  
                                  fp__I2C1_DO_RX_NACK_STOP 0000  
                                               _old_tz_buf 0088  
                                 ?_I2C1_CallbackReturnStop 004A  
                               __size_of_SYSTEM_Initialize 001A  
                                  i2c_read1ByteRegister@d2 0055  
                        __end_of_I2C1_DO_SEND_RESTART_READ 199E  
                                     end_of_initialization 15F8  
                               __end_of_I2C1_MasterSendAck 19B2  
                                      _I2C1_MasterClearIrq 19BE  
                ?_rd2RegCompleteHandler@__tm_to_secs$F2360 004A  
               ??_rd2RegCompleteHandler@__tm_to_secs$F2362 004C  
                ?_rd1RegCompleteHandler@__tm_to_secs$F2355 004A  
                ?_wr1RegCompleteHandler@__tm_to_secs$F2347 004A  
              ?_rdBlkRegCompleteHandler@__tm_to_secs$F2372 004A  
               ??_rd1RegCompleteHandler@__tm_to_secs$F2357 004C  
               ??_wr1RegCompleteHandler@__tm_to_secs$F2349 004C  
             ??_rdBlkRegCompleteHandler@__tm_to_secs$F2374 004C  
                ?_wr2RegCompleteHandler@__tm_to_secs$F2366 004A  
               ??_wr2RegCompleteHandler@__tm_to_secs$F2368 004C  
                               __end_of_I2C1_MasterStartRx 19D8  
                                   ?_rd1RegCompleteHandler 004A  
                                   _I2C1_DO_SEND_ADR_WRITE 1924  
                             __end_of_I2C1_DO_SEND_RESTART 198E  
                                  __end_of_I2C1_MasterOpen 17EC  
                                   ?_wr1RegCompleteHandler 004A  
                                  __end_of_I2C1_MasterStop 19E4  
                                  __end_of_I2C1_Initialize 1904  
                        __size_of_I2C1_CallbackReturnReset 0004  
                                              _I2C1_Poller 182A  
                                        __end_of_rtcc_read 1924  
                           __size_of_I2C1_MasterDisableIrq 0006  
                                ?_I2C1_CallbackReturnReset 004A  
                            __end_of_I2C1_MasterDisableIrq 19BE  
                                              _I2C1_Status 0001  
                            __size_of_I2C1_DO_ADDRESS_NACK 006A  
                                 fp__rd2RegCompleteHandler 0000  
                                                  postdec1 000FE5  
                                                  postdec2 000FDD  
                                 fp__wr2RegCompleteHandler 0000  
                                                  postinc0 000FEE  
                                                  postinc2 000FDE  
                                  __size_of_I2C1_MasterFsm 0064  
                                      _I2C1_MasterSendNack 19B2  
                      __end_of_I2C1_SetAddressNackCallback 182A  
                              _I2C1_SetAddressNackCallback 180E  
                                     ?_I2C1_MasterClearIrq 003F  
                                        ??_rtc6_Initialize 0057  
                                           ??_I2C1_DO_IDLE 003F  
                                           ??_I2C1_DO_RCEN 003F  
                       __end_of_I2C1_DO_SEND_RESTART_WRITE 1996  
                               _I2C1_DO_SEND_RESTART_WRITE 198E  
                                __size_of_I2C1_MasterClose 0004  
                                  __size_of_I2C1_SetBuffer 0022  
                          __end_of_rdBlkRegCompleteHandler 157E  
                         __size_of_I2C1_MasterWaitForEvent 0012  
                                __size_of_I2C1_MasterStart 0004  
                                __size_of_I2C1_MasterWrite 0008  
                                               _rtcc_write 17A8  
                                  ??_i2c_read1ByteRegister 0051  
                            __size_of_I2C1_MasterOperation 0042  
                            ??_I2C1_SetAddressNackCallback 004A  
                          I2C1_SetDataCompleteCallback@ptr 0048  
                                ??_TMR0_HasOverflowOccured 003F  
                           I2C1_CallbackReturnReset@funPtr 004A  
                                     ?_I2C1_MasterSendNack 003F  
                                __size_of_I2C1_SetCallback 0084  
                               __size_of_I2C1_DO_SEND_STOP 0008  
                                           _TMR0_StopTimer 19C8  
                                    ??_I2C1_MasterClearIrq 003F  
                                           _I2C1_DO_RX_ACK 1976  
                                            __pidataCOMRAM 19C4  
                                   ?_OSCILLATOR_Initialize 003F  
                               __size_of_I2C1_MasterIsNack 0014  
               __end_of___month_to_secs@secs_through_month 0E31  
                       ___month_to_secs@secs_through_month 0E01  
                          __end_of_I2C1_CallbackReturnStop 19E0  
                           __size_of_I2C1_MasterSendTxData 0008  
                            __end_of_I2C1_MasterSendTxData 19A6  
                               __size_of_I2C1_MasterSetIrq 0006  
                                      start_initialization 15C0  
                                              ??_I2C1_Open 003F  
                            __size_of_I2C1_DO_RX_NACK_STOP 0008  
                                 __size_of_TMR0_Initialize 0016  
                          __size_of_PIN_MANAGER_Initialize 00B8  
                                              _abbrevs_end 002D  
                                    ??_I2C1_MasterSendNack 003F  
                                   rd1RegCompleteHandler@p 004A  
                                 I2C1_SetBuffer@bufferSize 0041  
                                   __end_of_TMR0_StopTimer 19CC  
                                         ?_I2C1_MasterOpen 003F  
                                         ?_I2C1_MasterStop 003F  
                                         ?_I2C1_Initialize 003F  
                                         ??_PMD_Initialize 003F  
                             i2c_read1ByteRegister@address 0051  
                                   __end_of_I2C1_DO_RX_ACK 197E  
                                   wr1RegCompleteHandler@p 004A  
                                  ??_I2C1_DO_SEND_ADR_READ 003F  
                                         I2C1_Open@address 003F  
                                              ?_rtcc_write 0053  
                                              __pbssCOMRAM 0001  
                                     _I2C1_DO_SEND_RESTART 1986  
                              ??_I2C1_DO_SEND_RESTART_READ 003F  
                                     __end_of_I2C1_DO_IDLE 195E  
                                     __end_of_I2C1_DO_RCEN 1954  
                            I2C1_SetAddressNackCallback@cb 0045  
                                    _rd2RegCompleteHandler 16BE  
                                 __size_of_TMR0_StartTimer 0004  
                                fp__I2C1_DO_SEND_ADR_WRITE 0000  
                                          ?_TMR0_StopTimer 003F  
                                   _PIN_MANAGER_Initialize 0F38  
                                    _wr2RegCompleteHandler 168E  
                               ??_I2C1_MasterEnableRestart 003F  
                                           _I2C1_MasterFsm 1444  
                                   __size_of_I2C1_DO_RESET 000A  
                                         fp__I2C1_DO_RESET 0000  
                                          ?_I2C1_DO_RX_ACK 003F  
                                  _I2C1_MasterWaitForEvent 1904  
                                         _I2C1_MasterClose 19EC  
                                           _I2C1_SetBuffer 17EC  
                                         _I2C1_MasterStart 19E8  
                                         _I2C1_MasterWrite 195E  
                                              __smallconst 0E00  
                                    ?_I2C1_DO_SEND_RESTART 003F  
                                        ?_I2C1_DO_TX_EMPTY 003F  
                         __end_of_I2C1_CallbackReturnReset 19DC  
                                       ??_I2C1_DO_TX_EMPTY 004C  
                                  ??_rd1RegCompleteHandler 004C  
                                  ?_I2C1_DO_SEND_ADR_WRITE 003F  
                                I2C1_MasterSendTxData@data 003F  
                                  ??_wr1RegCompleteHandler 004C  
                                        ??_TMR0_Initialize 003F  
                                         _I2C1_SetCallback 11E8  
                                   i2c_read1ByteRegister@e 0052  
                                   i2c_read1ByteRegister@x 0053  
                                                 _LATDbits 000F7C  
                                               _I2C1_DO_RX 10A2  
                                               _I2C1_DO_TX 0E74  
                                          _rtc6_Initialize 126C  
                                                 _PIE3bits 000E2C  
                                      __size_of_rtcc_write 0022  
                                               _I2C1_Close 177E  
                                             ?_I2C1_Poller 003F  
                                   __end_of_I2C1_MasterFsm 14A8  
                             __end_of_I2C1_MasterGetRxData 19D4  
                                                 _PIR0bits 000E33  
                         __size_of_I2C1_CallbackReturnStop 0004  
                                                 _PIR3bits 000E36  
                                       _I2C1_MasterSendAck 19AC  
                                _I2C1_DO_SEND_RESTART_READ 1996  
                                                 _SSP1CON1 000F95  
                                                 _SSP1CON2 000F96  
                                   __end_of_I2C1_SetBuffer 180E  
                       __end_of___secs_to_tm@days_in_month 0E6D  
                               ___secs_to_tm@days_in_month 0E61  
                                                _rtcc_read 1916  
                                                 _SSP1STAT 000F94  
                     __end_of_I2C1_SetDataCompleteCallback 1862  
                    __size_of_I2C1_SetDataCompleteCallback 001C  
                             _I2C1_SetDataCompleteCallback 1846  
                                       _I2C1_MasterStartRx 19D4  
                              ?_I2C1_DO_SEND_RESTART_WRITE 003F  
                                      ?_I2C1_MasterSendAck 003F  
                                 ?_I2C1_DO_RX_NACK_RESTART 003F  
                                     fp__I2C1_DO_SEND_STOP 0000  
                                      ?_I2C1_MasterStartRx 003F  
                             __end_of_I2C1_DO_ADDRESS_NACK 1444  
                           __size_of_i2c_read1ByteRegister 00B2  
                            __end_of_i2c_read1ByteRegister 10A2  
                           __end_of_I2C1_DO_SEND_ADR_WRITE 1932  
                                            _I2C1_DO_RESET 1940  
                                                copy_data0 15D4  
                                    I2C1_Close@returnValue 003F  
                                 ?_rdBlkRegCompleteHandler 004A  
                                      I2C1_SetCallback@idx 0044  
                                      I2C1_SetCallback@ptr 0042  
                                     ??_I2C1_MasterSendAck 003F  
                                   ?_rd2RegCompleteHandler 004A  
                             __end_of_I2C1_MasterOperation 15C0  
                                   ?_wr2RegCompleteHandler 004A  
                                     ??_I2C1_MasterStartRx 003F  
                                                 __Hrparam 0000  
                                          ?_I2C1_MasterFsm 003F  
                                                 __Lrparam 0000  
                                ??_I2C1_MasterWaitForEvent 003F  
                                    _I2C1_MasterDisableIrq 19B8  
                                  ??_OSCILLATOR_Initialize 003F  
                                               ?_rtcc_read 003F  
                                          ?_I2C1_SetBuffer 003F  
                                        ??_TMR0_StartTimer 003F  
                                   ??_I2C1_DO_SEND_RESTART 003F  
                                                 ___tzname 0080  
                                               _T0CON0bits 000FD5  
                                                 _dateTime 0060  
                                           ?_I2C1_DO_RESET 003F  
                                    __size_of_I2C1_DO_IDLE 000A  
                                    __size_of_I2C1_DO_RCEN 000A  
                                                 _daylight 0039  
                                                 __ptext10 180E  
                                                 __ptext11 1148  
                                                 __ptext20 1966  
                                                 __ptext12 17CA  
                                                 __ptext21 196E  
                                                 __ptext13 195E  
                                                 __ptext30 1924  
                                                 __ptext22 1976  
                                                 __ptext14 157E  
                                                 __ptext31 1932  
                                                 __ptext23 197E  
                                                 __ptext15 182A  
                                                 __ptext40 19D4  
                                                 __ptext32 1954  
                                                 __ptext24 1986  
                                                 __ptext16 1904  
                                                 __ptext41 19D8  
                                                 __ptext33 12E8  
                                                 __ptext25 198E  
                                                 __ptext17 1444  
                                                 __ptext50 16EE  
                                                 __ptext42 19DC  
                                                 __ptext34 19A6  
                                                 __ptext26 1996  
                                                 __ptext18 13DA  
                                                 __ptext51 171E  
                                                 __ptext43 14F6  
                                                 __ptext35 18DC  
                                                 __ptext27 194A  
                                                 __ptext19 1940  
                                                 __ptext60 19B8  
                                                 __ptext52 174E  
                                                 __ptext44 15FE  
                                                 __ptext36 199E  
                                                 __ptext28 10A2  
                                                 __ptext61 19EC  
                                                 __ptext53 1846  
                                                 __ptext45 162E  
                                                 __ptext37 19AC  
                                                 __ptext29 0E74  
                                                 __ptext62 19BE  
                                                 __ptext54 11E8  
                                                 __ptext46 165E  
                                                 __ptext38 19D0  
                                                 __ptext63 18C6  
                                                 __ptext55 17EC  
                                                 __ptext47 153A  
                                                 __ptext39 19B2  
                                                 __ptext64 1862  
                                                 __ptext56 19E0  
                                                 __ptext48 168E  
                                                 __ptext65 0F38  
                                                 __ptext57 19E4  
                                                 __ptext49 16BE  
                                                 __ptext66 1898  
                                                 __ptext58 19E8  
                                                 __ptext67 18F0  
                                                 __ptext59 177E  
                                                 __ptext68 0000  
                                             _SSP1CON1bits 000F95  
                                             _SSP1CON2bits 000F96  
                                  __end_of_rtc6_Initialize 12E8  
                                 ??_i2c_write1ByteRegister 0052  
                                                 _map_size 002B  
                                                 _dst_name 00D4  
                                 _I2C1_CallbackReturnReset 19D8  
                              fp__I2C1_CallbackReturnReset 0000  
                                            __size_of_main 004E  
                                              ?_I2C1_DO_RX 003F  
                                              ?_I2C1_DO_TX 003F  
                              __end_of_I2C1_MasterClearIrq 19C4  
                             __end_of_I2C1_DO_RX_NACK_STOP 1976  
                                              ?_I2C1_Close 003F  
                                                 _timezone 007C  
                                                 _std_name 00DB  
                          __end_of_I2C1_DO_RX_NACK_RESTART 196E  
                                              _old_tz_size 005A  
                                 I2C1_MasterOperation@read 004E  
                                             _SSP1STATbits 000F94  
                           __size_of_I2C1_DO_SEND_ADR_READ 000E  
                                 i2c_read1ByteRegister@reg 0050  
                            __end_of_I2C1_DO_SEND_ADR_READ 1940  
                                             _I2C1_DO_IDLE 1954  
                                             _I2C1_DO_RCEN 194A  
                                             ??_rtcc_write 0054  
                              __end_of_I2C1_MasterSendNack 19B8  
                                 ?_TMR0_HasOverflowOccured 003F  
                            fp__I2C1_DO_SEND_RESTART_WRITE 0000  
                           I2C1_SetAddressNackCallback@ptr 0048  
                                     _I2C1_MasterGetRxData 19D0  
                                    _I2C1_MasterSendTxData 199E  
                                         ??_TMR0_StopTimer 003F  
                                 __end_of_I2C1_MasterClose 19F0  
                                   rd2RegCompleteHandler@p 004A  
                                  ?_PIN_MANAGER_Initialize 003F  
                                 __end_of_I2C1_MasterStart 19EC  
                                 __end_of_I2C1_MasterWrite 1966  
                                         ??_I2C1_DO_RX_ACK 003F  
                                  _I2C1_CallbackReturnStop 19DC  
                               fp__I2C1_CallbackReturnStop 0000  
                                       __end_of_rtcc_write 17CA  
                                     _I2C1_DO_ADDRESS_NACK 13DA  
                                   ?_I2C1_MasterDisableIrq 003F  
                                     __size_of_I2C1_Poller 001C  
                                   wr2RegCompleteHandler@p 004A  
                                              ??_rtcc_read 0056  
                                 __size_of_I2C1_MasterOpen 0022  
                                 __size_of_I2C1_MasterStop 0004  
                                 __size_of_I2C1_Initialize 0014  
                                 __end_of_I2C1_SetCallback 126C  
                                               _SSP1DATPPS 000E1A  
                                               _SSP1CLKPPS 000E19  
                                      __size_of_I2C1_DO_RX 00A6  
                                      __size_of_I2C1_DO_TX 00C4  
                                          ??_I2C1_DO_RESET 003F  
                                     _I2C1_MasterOperation 157E  
                                          _TMR0_Initialize 18C6  
                                      __size_of_I2C1_Close 002A  
                                    ?_I2C1_MasterGetRxData 003F  
                                         ?_rtc6_Initialize 003F  
                           __end_of_PIN_MANAGER_Initialize 0FF0  
                           __size_of_rd1RegCompleteHandler 0030  
                          __size_of_i2c_write1ByteRegister 0076  
                            __end_of_rd1RegCompleteHandler 171E  
                                       __size_of_I2C1_Open 00A0  
                           __size_of_wr1RegCompleteHandler 0030  
                            __end_of_wr1RegCompleteHandler 174E  
                                __size_of_I2C1_DO_TX_EMPTY 007C  
                                    ?_I2C1_DO_ADDRESS_NACK 003F  
